ccopy_reg
_reconstructor
p1
(cpsychopy.data
ExperimentHandler
p2
c__builtin__
object
p3
NtRp4
(dp5
S'originPath'
p6
NsS'dataFileName'
p7
VC:/Users/banda/Documents/tfMRI_output/asdf/asdf_ABCD_A_conflict_2016_Sep_22_1251
p8
sS'runtimeInfo'
p9
NsS'name'
p10
S'conflict'
p11
sS'dataNames'
p12
(lp13
S'CueOnset'
p14
aS'FixOnset'
p15
aS'ImageOnset'
p16
aS'SameDiffResponse.keys'
p17
aS'SameDiffResponse.rt'
p18
aS'PressedKeys'
p19
aS'PressedKeyTimes'
p20
asS'autoLog'
p21
I01
sS'extraInfo'
p22
(dp23
S'expName'
p24
g11
sS'run'
p25
VA
sS'responseKeyDIFFERENT'
p26
(lp27
S'2'
asS'CB'
p28
S'1'
sS'frameRate'
p29
cnumpy.core.multiarray
scalar
p30
(cnumpy
dtype
p31
(S'f8'
I0
I1
tRp32
(I3
S'<'
NNNI-1
I-1
I0
tbS'\xb7\xe7\x90\x93\x9cVN@'
tRp33
sS'group'
p34
VHC
p35
sS'runMode'
p36
VScanner
p37
sS'session'
p38
VABCD
p39
sS'RunNumber'
p40
I4
sS'date'
p41
V2016_Sep_22_1251
p42
sS'participant'
p43
Vasdf
p44
sS'responseKeySAME'
p45
(lp46
S'1'
assS'loopsUnfinished'
p47
(lp48
sS'saveWideText'
p49
I01
sS'thisEntry'
p50
(dp51
sS'version'
p52
S''
sS'_paramNamesSoFar'
p53
(lp54
S'facesAreFearful'
p55
aS'imgNorth'
p56
aS'ITI'
p57
aS'imgSouth'
p58
aS'targetDimension'
p59
aS'imgWest'
p60
aS'correctResponse'
p61
aS'attendedItemsMatch'
p62
aS'nonAttendedItemsMatch'
p63
aS'imgEast'
p64
aS'facesAreAttended'
p65
asS'entries'
p66
(lp67
(dp68
g55
g30
(g31
(S'i8'
I0
I1
tRp69
(I3
S'<'
NNNI-1
I-1
I0
tbS'\x01\x00\x00\x00\x00\x00\x00\x00'
tRp70
sg15
F8.1998820304870605
sS'TrialsInRun.thisRepN'
p71
I0
sg26
g27
sg18
F0.82471704483032227
sg14
F5.0050539970397949
sg29
g33
sg56
S'stimuli/Faces/F06.pict.jpg'
p72
sg20
S"['0.824698925018']"
p73
sg36
g37
sg38
g39
sS'TrialsInRun.thisN'
p74
I0
sg34
g35
sg59
S'WE'
p75
sg17
S'2'
sg62
g30
(g69
S'\x01\x00\x00\x00\x00\x00\x00\x00'
tRp76
sg28
S'1'
sg25
VA
sS'TrialsInRun.thisTrialN'
p77
I0
sS'TrialsInRun.thisIndex'
p78
g30
(g31
(S'i4'
I0
I1
tRp79
(I3
S'<'
NNNI-1
I-1
I0
tbS'\x00\x00\x00\x00'
tRp80
sg60
S'stimuli/Houses/H09.pict.jpg'
p81
sg19
S"['2']"
p82
sg41
g42
sg43
g44
sg45
g46
sg57
g30
(g32
S'333333\x01@'
tRp83
sg58
S'stimuli/Faces/F06.pict.jpg'
p84
sg16
F9.2051730155944824
sg24
g11
sg61
S'IDENTICAL'
p85
sg63
g30
(g69
S'\x01\x00\x00\x00\x00\x00\x00\x00'
tRp86
sg64
S'stimuli/Houses/H09.pict.jpg'
p87
sg65
g30
(g69
S'\x00\x00\x00\x00\x00\x00\x00\x00'
tRp88
sg40
I1
sa(dp89
g55
g30
(g69
S'\x01\x00\x00\x00\x00\x00\x00\x00'
tRp90
sg15
F13.559437990188599
sS'TrialsInRun.thisRepN'
p91
I0
sg26
g27
sg18
F0.78789782524108887
sg14
F5.0050539970397949
sg29
g33
sg56
S'stimuli/Faces/F10.pict.jpg'
p92
sg20
S"['0.787858963013']"
p93
sg36
g37
sg38
g39
sS'TrialsInRun.thisN'
p94
I1
sg34
g35
sg59
g75
sg17
S'1'
sg62
g30
(g69
S'\x00\x00\x00\x00\x00\x00\x00\x00'
tRp95
sg28
S'1'
sg25
VA
sS'TrialsInRun.thisTrialN'
p96
I1
sS'TrialsInRun.thisIndex'
p97
g30
(g79
S'\x01\x00\x00\x00'
tRp98
sg60
S'stimuli/Houses/H20.pict.jpg'
p99
sg19
S"['1']"
p100
sg41
g42
sg43
g44
sg45
g46
sg57
g30
(g32
S'\\\x8f\xc2\xf5(\\#@'
tRp101
sg58
S'stimuli/Faces/F04.pict.jpg'
p102
sg16
F14.560419082641602
sg24
g11
sg61
S'DIFFERENT'
p103
sg63
g30
(g69
S'\x00\x00\x00\x00\x00\x00\x00\x00'
tRp104
sg64
S'stimuli/Houses/H04.pict.jpg'
p105
sg65
g30
(g69
S'\x00\x00\x00\x00\x00\x00\x00\x00'
tRp106
sg40
I1
sa(dp107
g55
g30
(g69
S'\x01\x00\x00\x00\x00\x00\x00\x00'
tRp108
sg15
F26.452161073684692
sS'TrialsInRun.thisRepN'
p109
I0
sg26
g27
sg18
F1.4293999671936035
sg14
F5.0050539970397949
sg29
g33
sg56
S'stimuli/Faces/F09.pict.jpg'
p110
sg20
S"['1.42930412292']"
p111
sg36
g37
sg38
g39
sS'TrialsInRun.thisN'
p112
I2
sg34
g35
sg59
g75
sg17
S'2'
sg62
g30
(g69
S'\x00\x00\x00\x00\x00\x00\x00\x00'
tRp113
sg28
S'1'
sg25
VA
sS'TrialsInRun.thisTrialN'
p114
I2
sS'TrialsInRun.thisIndex'
p115
g30
(g79
S'\x02\x00\x00\x00'
tRp116
sg60
S'stimuli/Houses/H03.pict.jpg'
p117
sg19
S"['2']"
p118
sg41
g42
sg43
g44
sg45
g46
sg57
g30
(g32
S'\xa4p=\n\xd7\xa3\x12@'
tRp119
sg58
S'stimuli/Faces/F09.pict.jpg'
p120
sg16
F27.4618079662323
sg24
g11
sg61
g103
sg63
g30
(g69
S'\x01\x00\x00\x00\x00\x00\x00\x00'
tRp121
sg64
S'stimuli/Houses/H05.pict.jpg'
p122
sg65
g30
(g69
S'\x00\x00\x00\x00\x00\x00\x00\x00'
tRp123
sg40
I1
sa(dp124
g55
g30
(g69
S'\x00\x00\x00\x00\x00\x00\x00\x00'
tRp125
sg15
F34.326360940933228
sS'TrialsInRun.thisRepN'
p126
I0
sg26
g27
sg18
F1.4013931751251221
sg14
F5.0050539970397949
sg29
g33
sg56
S'stimuli/Faces/N08.pict.jpg'
p127
sg20
S"['1.40135002136']"
p128
sg36
g37
sg38
g39
sS'TrialsInRun.thisN'
p129
I3
sg34
g35
sg59
g75
sg17
S'2'
sg62
g30
(g69
S'\x01\x00\x00\x00\x00\x00\x00\x00'
tRp130
sg28
S'1'
sg25
VA
sS'TrialsInRun.thisTrialN'
p131
I3
sS'TrialsInRun.thisIndex'
p132
g30
(g79
S'\x03\x00\x00\x00'
tRp133
sg60
S'stimuli/Houses/H16.pict.jpg'
p134
sg19
S"['2']"
p135
sg41
g42
sg43
g44
sg45
g46
sg57
g30
(g32
S'\xa4p=\n\xd7\xa3\x12@'
tRp136
sg58
S'stimuli/Faces/N08.pict.jpg'
p137
sg16
F35.331035137176514
sg24
g11
sg61
g85
sg63
g30
(g69
S'\x01\x00\x00\x00\x00\x00\x00\x00'
tRp138
sg64
S'stimuli/Houses/H16.pict.jpg'
p139
sg65
g30
(g69
S'\x00\x00\x00\x00\x00\x00\x00\x00'
tRp140
sg40
I1
sa(dp141
g55
g30
(g69
S'\x01\x00\x00\x00\x00\x00\x00\x00'
tRp142
sg15
F42.198602914810181
sS'TrialsInRun.thisRepN'
p143
I0
sg26
g27
sg18
F1.504918098449707
sg14
F5.0050539970397949
sg29
g33
sg56
S'stimuli/Houses/H17.pict.jpg'
p144
sg20
S"['1.50487804413']"
p145
sg36
g37
sg38
g39
sS'TrialsInRun.thisN'
p146
I4
sg34
g35
sg59
g75
sg17
S'2'
sg62
g30
(g69
S'\x00\x00\x00\x00\x00\x00\x00\x00'
tRp147
sg28
S'1'
sg25
VA
sS'TrialsInRun.thisTrialN'
p148
I4
sS'TrialsInRun.thisIndex'
p149
g30
(g79
S'\x04\x00\x00\x00'
tRp150
sg60
S'stimuli/Faces/F01.pict.jpg'
p151
sg19
S"['2']"
p152
sg41
g42
sg43
g44
sg45
g46
sg57
g30
(g32
S'333333\x01@'
tRp153
sg58
S'stimuli/Houses/H07.pict.jpg'
p154
sg16
F43.205511093139648
sg24
g11
sg61
g103
sg63
g30
(g69
S'\x00\x00\x00\x00\x00\x00\x00\x00'
tRp155
sg64
S'stimuli/Faces/F08.pict.jpg'
p156
sg65
g30
(g69
S'\x01\x00\x00\x00\x00\x00\x00\x00'
tRp157
sg40
I1
sa(dp158
g55
g30
(g69
S'\x01\x00\x00\x00\x00\x00\x00\x00'
tRp159
sg15
F47.55917501449585
sS'TrialsInRun.thisRepN'
p160
I0
sg26
g27
sg18
F1.4481871128082275
sg14
F5.0050539970397949
sg29
g33
sg56
S'stimuli/Houses/H08.pict.jpg'
p161
sg20
S"['1.4481048584']"
p162
sg36
g37
sg38
g39
sS'TrialsInRun.thisN'
p163
I5
sg34
g35
sg59
g75
sg17
S'1'
sg62
g30
(g69
S'\x01\x00\x00\x00\x00\x00\x00\x00'
tRp164
sg28
S'1'
sg25
VA
sS'TrialsInRun.thisTrialN'
p165
I5
sS'TrialsInRun.thisIndex'
p166
g30
(g79
S'\x05\x00\x00\x00'
tRp167
sg60
S'stimuli/Faces/F05.pict.jpg'
p168
sg19
S"['1']"
p169
sg41
g42
sg43
g44
sg45
g46
sg57
g30
(g32
S'333333\x01@'
tRp170
sg58
S'stimuli/Houses/H02.pict.jpg'
p171
sg16
F48.565957069396973
sg24
g11
sg61
g85
sg63
g30
(g69
S'\x00\x00\x00\x00\x00\x00\x00\x00'
tRp172
sg64
S'stimuli/Faces/F05.pict.jpg'
p173
sg65
g30
(g69
S'\x01\x00\x00\x00\x00\x00\x00\x00'
tRp174
sg40
I1
sa(dp175
g55
g30
(g69
S'\x00\x00\x00\x00\x00\x00\x00\x00'
tRp176
sg15
F52.91953706741333
sS'TrialsInRun.thisRepN'
p177
I0
sg26
g27
sg18
F1.415855884552002
sg14
F5.0050539970397949
sg29
g33
sg56
S'stimuli/Faces/N01.pict.jpg'
p178
sg20
S"['1.41578698158']"
p179
sg36
g37
sg38
g39
sS'TrialsInRun.thisN'
p180
I6
sg34
g35
sg59
g75
sg17
S'1'
sg62
g30
(g69
S'\x01\x00\x00\x00\x00\x00\x00\x00'
tRp181
sg28
S'1'
sg25
VA
sS'TrialsInRun.thisTrialN'
p182
I6
sS'TrialsInRun.thisIndex'
p183
g30
(g79
S'\x06\x00\x00\x00'
tRp184
sg60
S'stimuli/Houses/H15.pict.jpg'
p185
sg19
S"['1']"
p186
sg41
g42
sg43
g44
sg45
g46
sg57
g30
(g32
S'\xe1z\x14\xaeGa(@'
tRp187
sg58
S'stimuli/Faces/N03.pict.jpg'
p188
sg16
F53.918280124664307
sg24
g11
sg61
g85
sg63
g30
(g69
S'\x00\x00\x00\x00\x00\x00\x00\x00'
tRp189
sg64
S'stimuli/Houses/H15.pict.jpg'
p190
sg65
g30
(g69
S'\x00\x00\x00\x00\x00\x00\x00\x00'
tRp191
sg40
I1
sa(dp192
g55
g30
(g69
S'\x00\x00\x00\x00\x00\x00\x00\x00'
tRp193
sg15
F68.327698945999146
sS'TrialsInRun.thisRepN'
p194
I0
sg26
g27
sg18
F1.036046028137207
sg14
F5.0050539970397949
sg29
g33
sg56
S'stimuli/Houses/H01.pict.jpg'
p195
sg20
S"['1.03596901894']"
p196
sg36
g37
sg38
g39
sS'TrialsInRun.thisN'
p197
I7
sg34
g35
sg59
g75
sg17
S'1'
sg62
g30
(g69
S'\x01\x00\x00\x00\x00\x00\x00\x00'
tRp198
sg28
S'1'
sg25
VA
sS'TrialsInRun.thisTrialN'
p199
I7
sS'TrialsInRun.thisIndex'
p200
g30
(g79
S'\x07\x00\x00\x00'
tRp201
sg60
S'stimuli/Faces/N05.pict.jpg'
p202
sg19
S"['1']"
p203
sg41
g42
sg43
g44
sg45
g46
sg57
g30
(g32
S'\xaeG\xe1z\x14\xae\x1c@'
tRp204
sg58
S'stimuli/Houses/H01.pict.jpg'
p205
sg16
F69.332583904266357
sg24
g11
sg61
g85
sg63
g30
(g69
S'\x01\x00\x00\x00\x00\x00\x00\x00'
tRp206
sg64
S'stimuli/Faces/N05.pict.jpg'
p207
sg65
g30
(g69
S'\x01\x00\x00\x00\x00\x00\x00\x00'
tRp208
sg40
I1
sa(dp209
g55
g30
(g69
S'\x00\x00\x00\x00\x00\x00\x00\x00'
tRp210
sg15
F78.704950094223022
sS'TrialsInRun.thisRepN'
p211
I0
sg26
g27
sg18
F2.1537837982177734
sg14
F5.0050539970397949
sg29
g33
sg56
S'stimuli/Houses/H12.pict.jpg'
p212
sg20
S"['2.15372896194']"
p213
sg36
g37
sg38
g39
sS'TrialsInRun.thisN'
p214
I8
sg34
g35
sg59
g75
sg17
S'2'
sg62
g30
(g69
S'\x00\x00\x00\x00\x00\x00\x00\x00'
tRp215
sg28
S'1'
sg25
VA
sS'TrialsInRun.thisTrialN'
p216
I8
sS'TrialsInRun.thisIndex'
p217
g30
(g79
S'\x08\x00\x00\x00'
tRp218
sg60
S'stimuli/Faces/N07.pict.jpg'
p219
sg19
S"['2']"
p220
sg41
g42
sg43
g44
sg45
g46
sg57
g30
(g32
S'333333\x01@'
tRp221
sg58
S'stimuli/Houses/H12.pict.jpg'
p222
sg16
F79.708390951156616
sg24
g11
sg61
g103
sg63
g30
(g69
S'\x01\x00\x00\x00\x00\x00\x00\x00'
tRp223
sg64
S'stimuli/Faces/N10.pict.jpg'
p224
sg65
g30
(g69
S'\x01\x00\x00\x00\x00\x00\x00\x00'
tRp225
sg40
I1
sa(dp226
g55
g30
(g69
S'\x01\x00\x00\x00\x00\x00\x00\x00'
tRp227
sg15
F84.075638055801392
sS'TrialsInRun.thisRepN'
p228
I0
sg26
g27
sg14
F5.0050539970397949
sg29
g33
sg56
S'stimuli/Houses/H11.pict.jpg'
p229
sg20
S'[]'
p230
sg36
g37
sg38
g39
sS'TrialsInRun.thisN'
p231
I9
sg34
g35
sg59
g75
sg17
Nsg62
g30
(g69
S'\x01\x00\x00\x00\x00\x00\x00\x00'
tRp232
sg28
S'1'
sg25
VA
sS'TrialsInRun.thisTrialN'
p233
I9
sS'TrialsInRun.thisIndex'
p234
g30
(g79
S'\t\x00\x00\x00'
tRp235
sg60
S'stimuli/Faces/F02.pict.jpg'
p236
sg19
S'[]'
p237
sg41
g42
sg43
g44
sg45
g46
sg57
g30
(g32
S'\xaeG\xe1z\x14\xae\x1c@'
tRp238
sg58
S'stimuli/Houses/H11.pict.jpg'
p239
sg16
F85.084938049316406
sg24
g11
sg61
g85
sg63
g30
(g69
S'\x01\x00\x00\x00\x00\x00\x00\x00'
tRp240
sg64
S'stimuli/Faces/F02.pict.jpg'
p241
sg65
g30
(g69
S'\x01\x00\x00\x00\x00\x00\x00\x00'
tRp242
sg40
I1
sa(dp243
g55
g30
(g69
S'\x00\x00\x00\x00\x00\x00\x00\x00'
tRp244
sg15
F94.459574937820435
sS'TrialsInRun.thisRepN'
p245
I0
sg26
g27
sg18
F1.3528430461883545
sg14
F5.0050539970397949
sg29
g33
sg56
S'stimuli/Faces/N09.pict.jpg'
p246
sg20
S"['1.35280203819']"
p247
sg36
g37
sg38
g39
sS'TrialsInRun.thisN'
p248
I10
sg34
g35
sg59
g75
sg17
S'2'
sg62
g30
(g69
S'\x00\x00\x00\x00\x00\x00\x00\x00'
tRp249
sg28
S'1'
sg25
VA
sS'TrialsInRun.thisTrialN'
p250
I10
sS'TrialsInRun.thisIndex'
p251
g30
(g79
S'\n\x00\x00\x00'
tRp252
sg60
S'stimuli/Houses/H19.pict.jpg'
p253
sg19
S"['2']"
p254
sg41
g42
sg43
g44
sg45
g46
sg57
g30
(g32
S'\xa4p=\n\xd7\xa3\x12@'
tRp255
sg58
S'stimuli/Faces/N02.pict.jpg'
p256
sg16
F95.458699941635132
sg24
g11
sg61
g103
sg63
g30
(g69
S'\x00\x00\x00\x00\x00\x00\x00\x00'
tRp257
sg64
S'stimuli/Houses/H06.pict.jpg'
p258
sg65
g30
(g69
S'\x00\x00\x00\x00\x00\x00\x00\x00'
tRp259
sg40
I1
sa(dp260
g55
g30
(g69
S'\x00\x00\x00\x00\x00\x00\x00\x00'
tRp261
sg15
F102.32961297035217
sS'TrialsInRun.thisRepN'
p262
I0
sg26
g27
sg18
F1.5027158260345459
sg14
F5.0050539970397949
sg29
g33
sg56
S'stimuli/Faces/N04.pict.jpg'
p263
sg20
S"['1.50271511078': '2.52723503113': '2.79467105865': '3.02500295639': '3.19509792328': '3.92728304863']"
p264
sg36
g37
sg38
g39
sS'TrialsInRun.thisN'
p265
I11
sg34
g35
sg59
g75
sg17
S'2'
sg62
g30
(g69
S'\x00\x00\x00\x00\x00\x00\x00\x00'
tRp266
sg28
S'1'
sg25
VA
sS'TrialsInRun.thisTrialN'
p267
I11
sS'TrialsInRun.thisIndex'
p268
g30
(g79
S'\x0b\x00\x00\x00'
tRp269
sg60
S'stimuli/Houses/H18.pict.jpg'
p270
sg19
S"['2': '2': '2': '2': '2': '1']"
p271
sg41
g42
sg43
g44
sg45
g46
sg57
g30
(g32
S'333333\x01@'
tRp272
sg58
S'stimuli/Faces/N04.pict.jpg'
p273
sg16
F103.33185005187988
sg24
g11
sg61
g103
sg63
g30
(g69
S'\x01\x00\x00\x00\x00\x00\x00\x00'
tRp274
sg64
S'stimuli/Houses/H10.pict.jpg'
p275
sg65
g30
(g69
S'\x00\x00\x00\x00\x00\x00\x00\x00'
tRp276
sg40
I1
sa(dp277
g55
g30
(g69
S'\x01\x00\x00\x00\x00\x00\x00\x00'
tRp278
sg15
F107.6829080581665
sS'TrialsInRun.thisRepN'
p279
I0
sg26
g27
sg18
F0.9106299877166748
sg14
F5.0050539970397949
sg29
g33
sg56
S'stimuli/Houses/H13.pict.jpg'
p280
sg20
S"['0.910758018494']"
p281
sg36
g37
sg38
g39
sS'TrialsInRun.thisN'
p282
I12
sg34
g35
sg59
g75
sg17
S'2'
sg62
g30
(g69
S'\x00\x00\x00\x00\x00\x00\x00\x00'
tRp283
sg28
S'1'
sg25
VA
sS'TrialsInRun.thisTrialN'
p284
I12
sS'TrialsInRun.thisIndex'
p285
g30
(g79
S'\x0c\x00\x00\x00'
tRp286
sg60
S'stimuli/Faces/F03.pict.jpg'
p287
sg19
S"['2']"
p288
sg41
g42
sg43
g44
sg45
g46
sg57
g30
(g32
S'\\\x8f\xc2\xf5(\\#@'
tRp289
sg58
S'stimuli/Houses/H13.pict.jpg'
p290
sg16
F108.68708992004395
sg24
g11
sg61
g103
sg63
g30
(g69
S'\x01\x00\x00\x00\x00\x00\x00\x00'
tRp291
sg64
S'stimuli/Faces/F07.pict.jpg'
p292
sg65
g30
(g69
S'\x01\x00\x00\x00\x00\x00\x00\x00'
tRp293
sg40
I1
sa(dp294
g55
g30
(g69
S'\x00\x00\x00\x00\x00\x00\x00\x00'
tRp295
sg15
F120.57664895057678
sS'TrialsInRun.thisRepN'
p296
I0
sg26
g27
sg18
F1.1810178756713867
sg14
F5.0050539970397949
sg29
g33
sg56
S'stimuli/Houses/H14.pict.jpg'
p297
sg20
S"['1.18096804619']"
p298
sg36
g37
sg38
g39
sS'TrialsInRun.thisN'
p299
I13
sg34
g35
sg59
g75
sg17
S'1'
sg62
g30
(g69
S'\x01\x00\x00\x00\x00\x00\x00\x00'
tRp300
sg28
S'1'
sg25
VA
sS'TrialsInRun.thisTrialN'
p301
I13
sS'TrialsInRun.thisIndex'
p302
g30
(g79
S'\r\x00\x00\x00'
tRp303
sg60
S'stimuli/Faces/N06.pict.jpg'
p304
sg19
S"['1']"
p305
sg41
g42
sg43
g44
sg45
g46
sg57
g30
(g32
S'\xe1z\x14\xaeGa(@'
tRp306
sg58
S'stimuli/Houses/H17.pict.jpg'
p307
sg16
F121.58326196670532
sg24
g11
sg61
g85
sg63
g30
(g69
S'\x00\x00\x00\x00\x00\x00\x00\x00'
tRp308
sg64
S'stimuli/Faces/N06.pict.jpg'
p309
sg65
g30
(g69
S'\x01\x00\x00\x00\x00\x00\x00\x00'
tRp310
sg40
I1
sa(dp311
g55
g30
(g69
S'\x00\x00\x00\x00\x00\x00\x00\x00'
tRp312
sg15
F135.98013496398926
sS'TrialsInRun.thisRepN'
p313
I0
sg26
g27
sg14
F5.0050539970397949
sg29
g33
sg56
S'stimuli/Houses/H09.pict.jpg'
p314
sg20
S'[]'
p315
sg36
g37
sg38
g39
sS'TrialsInRun.thisN'
p316
I14
sg34
g35
sg59
g75
sg17
Nsg62
g30
(g69
S'\x00\x00\x00\x00\x00\x00\x00\x00'
tRp317
sg28
S'1'
sg25
VA
sS'TrialsInRun.thisTrialN'
p318
I14
sS'TrialsInRun.thisIndex'
p319
g30
(g79
S'\x0e\x00\x00\x00'
tRp320
sg60
g304
sg19
S'[]'
p321
sg41
g42
sg43
g44
sg45
g46
sg57
g30
(g32
S'333333\x01@'
tRp322
sg58
g222
sg16
F136.98195695877075
sg24
g11
sg61
g103
sg63
g30
(g69
S'\x00\x00\x00\x00\x00\x00\x00\x00'
tRp323
sg64
S'stimuli/Faces/N04.pict.jpg'
p324
sg65
g30
(g69
S'\x01\x00\x00\x00\x00\x00\x00\x00'
tRp325
sg40
I1
sa(dp326
g55
g30
(g69
S'\x01\x00\x00\x00\x00\x00\x00\x00'
tRp327
sg15
F141.35012006759644
sS'TrialsInRun.thisRepN'
p328
I0
sg26
g27
sg18
F2.1371660232543945
sg14
F5.0050539970397949
sg29
g33
sg56
g72
sg20
S"['2.13712620735']"
p329
sg36
g37
sg38
g39
sS'TrialsInRun.thisN'
p330
I15
sg34
g35
sg59
g75
sg17
S'2'
sg62
g30
(g69
S'\x01\x00\x00\x00\x00\x00\x00\x00'
tRp331
sg28
S'1'
sg25
VA
sS'TrialsInRun.thisTrialN'
p332
I15
sS'TrialsInRun.thisIndex'
p333
g30
(g79
S'\x0f\x00\x00\x00'
tRp334
sg60
S'stimuli/Houses/H02.pict.jpg'
p335
sg19
S"['2']"
p336
sg41
g42
sg43
g44
sg45
g46
sg57
g30
(g32
S'333333\x01@'
tRp337
sg58
g102
sg16
F142.3538179397583
sg24
g11
sg61
g85
sg63
g30
(g69
S'\x00\x00\x00\x00\x00\x00\x00\x00'
tRp338
sg64
S'stimuli/Houses/H02.pict.jpg'
p339
sg65
g30
(g69
S'\x00\x00\x00\x00\x00\x00\x00\x00'
tRp340
sg40
I1
sa(dp341
g55
g30
(g69
S'\x01\x00\x00\x00\x00\x00\x00\x00'
tRp342
sg15
F146.70551896095276
sS'TrialsInRun.thisRepN'
p343
I0
sg26
g27
sg14
F5.0050539970397949
sg29
g33
sg56
S'stimuli/Faces/F01.pict.jpg'
p344
sg20
S'[]'
p345
sg36
g37
sg38
g39
sS'TrialsInRun.thisN'
p346
I16
sg34
g35
sg59
g75
sg17
Nsg62
g30
(g69
S'\x00\x00\x00\x00\x00\x00\x00\x00'
tRp347
sg28
S'1'
sg25
VA
sS'TrialsInRun.thisTrialN'
p348
I16
sS'TrialsInRun.thisIndex'
p349
g30
(g79
S'\x10\x00\x00\x00'
tRp350
sg60
S'stimuli/Houses/H10.pict.jpg'
p351
sg19
S'[]'
p352
sg41
g42
sg43
g44
sg45
g46
sg57
g30
(g32
S'\\\x8f\xc2\xf5(\\#@'
tRp353
sg58
S'stimuli/Faces/F01.pict.jpg'
p354
sg16
F147.7135329246521
sg24
g11
sg61
g103
sg63
g30
(g69
S'\x01\x00\x00\x00\x00\x00\x00\x00'
tRp355
sg64
S'stimuli/Houses/H08.pict.jpg'
p356
sg65
g30
(g69
S'\x00\x00\x00\x00\x00\x00\x00\x00'
tRp357
sg40
I1
sa(dp358
g55
g30
(g69
S'\x00\x00\x00\x00\x00\x00\x00\x00'
tRp359
sg15
F159.61075305938721
sS'TrialsInRun.thisRepN'
p360
I0
sg26
g27
sg14
F5.0050539970397949
sg29
g33
sg56
g246
sg20
S'[]'
p361
sg36
g37
sg38
g39
sS'TrialsInRun.thisN'
p362
I17
sg34
g35
sg59
g75
sg17
Nsg62
g30
(g69
S'\x01\x00\x00\x00\x00\x00\x00\x00'
tRp363
sg28
S'1'
sg25
VA
sS'TrialsInRun.thisTrialN'
p364
I17
sS'TrialsInRun.thisIndex'
p365
g30
(g79
S'\x11\x00\x00\x00'
tRp366
sg60
g99
sg19
S'[]'
p367
sg41
g42
sg43
g44
sg45
g46
sg57
g30
(g32
S'\xe1z\x14\xaeGa(@'
tRp368
sg58
g188
sg16
F160.61008596420288
sg24
g11
sg61
g85
sg63
g30
(g69
S'\x00\x00\x00\x00\x00\x00\x00\x00'
tRp369
sg64
S'stimuli/Houses/H20.pict.jpg'
p370
sg65
g30
(g69
S'\x00\x00\x00\x00\x00\x00\x00\x00'
tRp371
sg40
I1
sa(dp372
g55
g30
(g69
S'\x01\x00\x00\x00\x00\x00\x00\x00'
tRp373
sg15
F175.01672506332397
sS'TrialsInRun.thisRepN'
p374
I0
sg26
g27
sg18
F1.536890983581543
sg14
F5.0050539970397949
sg29
g33
sg56
S'stimuli/Houses/H18.pict.jpg'
p375
sg20
S"['1.53681707382']"
p376
sg36
g37
sg38
g39
sS'TrialsInRun.thisN'
p377
I18
sg34
g35
sg59
g75
sg17
S'2'
sg62
g30
(g69
S'\x01\x00\x00\x00\x00\x00\x00\x00'
tRp378
sg28
S'1'
sg25
VA
sS'TrialsInRun.thisTrialN'
p379
I18
sS'TrialsInRun.thisIndex'
p380
g30
(g79
S'\x12\x00\x00\x00'
tRp381
sg60
S'stimuli/Faces/F07.pict.jpg'
p382
sg19
S"['2']"
p383
sg41
g42
sg43
g44
sg45
g46
sg57
g30
(g32
S'\xaeG\xe1z\x14\xae\x1c@'
tRp384
sg58
S'stimuli/Houses/H18.pict.jpg'
p385
sg16
F176.02541399002075
sg24
g11
sg61
g85
sg63
g30
(g69
S'\x01\x00\x00\x00\x00\x00\x00\x00'
tRp386
sg64
g292
sg65
g30
(g69
S'\x01\x00\x00\x00\x00\x00\x00\x00'
tRp387
sg40
I1
sa(dp388
g55
g30
(g69
S'\x01\x00\x00\x00\x00\x00\x00\x00'
tRp389
sg15
F185.39630007743835
sS'TrialsInRun.thisRepN'
p390
I0
sg26
g27
sg18
F0.99532294273376465
sg14
F5.0050539970397949
sg29
g33
sg56
S'stimuli/Houses/H15.pict.jpg'
p391
sg20
S"['0.995280981064']"
p392
sg36
g37
sg38
g39
sS'TrialsInRun.thisN'
p393
I19
sg34
g35
sg59
g75
sg17
S'2'
sg62
g30
(g69
S'\x00\x00\x00\x00\x00\x00\x00\x00'
tRp394
sg28
S'1'
sg25
VA
sS'TrialsInRun.thisTrialN'
p395
I19
sS'TrialsInRun.thisIndex'
p396
g30
(g79
S'\x13\x00\x00\x00'
tRp397
sg60
S'stimuli/Faces/F10.pict.jpg'
p398
sg19
S"['2']"
p399
sg41
g42
sg43
g44
sg45
g46
sg57
g30
(g32
S'\xa4p=\n\xd7\xa3\x12@'
tRp400
sg58
S'stimuli/Houses/H15.pict.jpg'
p401
sg16
F186.39746904373169
sg24
g11
sg61
g103
sg63
g30
(g69
S'\x01\x00\x00\x00\x00\x00\x00\x00'
tRp402
sg64
g241
sg65
g30
(g69
S'\x01\x00\x00\x00\x00\x00\x00\x00'
tRp403
sg40
I1
sa(dp404
g55
g30
(g69
S'\x00\x00\x00\x00\x00\x00\x00\x00'
tRp405
sg15
F193.25851106643677
sS'TrialsInRun.thisRepN'
p406
I0
sg26
g27
sg18
F1.1676630973815918
sg14
F5.0050539970397949
sg29
g33
sg56
S'stimuli/Faces/N07.pict.jpg'
p407
sg20
S"['1.1675889492']"
p408
sg36
g37
sg38
g39
sS'TrialsInRun.thisN'
p409
I20
sg34
g35
sg59
g75
sg17
S'1'
sg62
g30
(g69
S'\x01\x00\x00\x00\x00\x00\x00\x00'
tRp410
sg28
S'1'
sg25
VA
sS'TrialsInRun.thisTrialN'
p411
I20
sS'TrialsInRun.thisIndex'
p412
g30
(g79
S'\x14\x00\x00\x00'
tRp413
sg60
S'stimuli/Houses/H04.pict.jpg'
p414
sg19
S"['1']"
p415
sg41
g42
sg43
g44
sg45
g46
sg57
g30
(g32
S'\xa4p=\n\xd7\xa3\x12@'
tRp416
sg58
S'stimuli/Faces/N07.pict.jpg'
p417
sg16
F194.25889801979065
sg24
g11
sg61
g85
sg63
g30
(g69
S'\x01\x00\x00\x00\x00\x00\x00\x00'
tRp418
sg64
g105
sg65
g30
(g69
S'\x00\x00\x00\x00\x00\x00\x00\x00'
tRp419
sg40
I1
sa(dp420
g55
g30
(g69
S'\x01\x00\x00\x00\x00\x00\x00\x00'
tRp421
sg15
F201.14312410354614
sS'TrialsInRun.thisRepN'
p422
I0
sg26
g27
sg18
F1.0259180068969727
sg14
F5.0050539970397949
sg29
g33
sg56
S'stimuli/Houses/H16.pict.jpg'
p423
sg20
S"['1.02587008476']"
p424
sg36
g37
sg38
g39
sS'TrialsInRun.thisN'
p425
I21
sg34
g35
sg59
g75
sg17
S'1'
sg62
g30
(g69
S'\x01\x00\x00\x00\x00\x00\x00\x00'
tRp426
sg28
S'1'
sg25
VA
sS'TrialsInRun.thisTrialN'
p427
I21
sS'TrialsInRun.thisIndex'
p428
g30
(g79
S'\x15\x00\x00\x00'
tRp429
sg60
S'stimuli/Faces/F09.pict.jpg'
p430
sg19
S"['1']"
p431
sg41
g42
sg43
g44
sg45
g46
sg57
g30
(g32
S'333333\x01@'
tRp432
sg58
S'stimuli/Houses/H19.pict.jpg'
p433
sg16
F202.14643907546997
sg24
g11
sg61
g85
sg63
g30
(g69
S'\x00\x00\x00\x00\x00\x00\x00\x00'
tRp434
sg64
S'stimuli/Faces/F09.pict.jpg'
p435
sg65
g30
(g69
S'\x01\x00\x00\x00\x00\x00\x00\x00'
tRp436
sg40
I1
sa(dp437
g55
g30
(g69
S'\x00\x00\x00\x00\x00\x00\x00\x00'
tRp438
sg15
F206.51510691642761
sS'TrialsInRun.thisRepN'
p439
I0
sg26
g27
sg18
F1.1687819957733154
sg14
F5.0050539970397949
sg29
g33
sg56
g229
sg20
S"['1.16878509521']"
p440
sg36
g37
sg38
g39
sS'TrialsInRun.thisN'
p441
I22
sg34
g35
sg59
g75
sg17
S'2'
sg62
g30
(g69
S'\x00\x00\x00\x00\x00\x00\x00\x00'
tRp442
sg28
S'1'
sg25
VA
sS'TrialsInRun.thisTrialN'
p443
I22
sS'TrialsInRun.thisIndex'
p444
g30
(g79
S'\x16\x00\x00\x00'
tRp445
sg60
S'stimuli/Faces/N01.pict.jpg'
p446
sg19
S"['2']"
p447
sg41
g42
sg43
g44
sg45
g46
sg57
g30
(g32
S'333333\x01@'
tRp448
sg58
g154
sg16
F207.51831698417664
sg24
g11
sg61
g103
sg63
g30
(g69
S'\x00\x00\x00\x00\x00\x00\x00\x00'
tRp449
sg64
S'stimuli/Faces/N02.pict.jpg'
p450
sg65
g30
(g69
S'\x01\x00\x00\x00\x00\x00\x00\x00'
tRp451
sg40
I1
sa(dp452
g55
g30
(g69
S'\x00\x00\x00\x00\x00\x00\x00\x00'
tRp453
sg15
F211.87008810043335
sS'TrialsInRun.thisRepN'
p454
I0
sg26
g27
sg18
F0.89512109756469727
sg14
F5.0050539970397949
sg29
g33
sg56
S'stimuli/Houses/H03.pict.jpg'
p455
sg20
S"['0.895015954971']"
p456
sg36
g37
sg38
g39
sS'TrialsInRun.thisN'
p457
I23
sg34
g35
sg59
g75
sg17
S'2'
sg62
g30
(g69
S'\x00\x00\x00\x00\x00\x00\x00\x00'
tRp458
sg28
S'1'
sg25
VA
sS'TrialsInRun.thisTrialN'
p459
I23
sS'TrialsInRun.thisIndex'
p460
g30
(g79
S'\x17\x00\x00\x00'
tRp461
sg60
g202
sg19
S"['2']"
p462
sg41
g42
sg43
g44
sg45
g46
sg57
g30
(g32
S'333333\x01@'
tRp463
sg58
S'stimuli/Houses/H03.pict.jpg'
p464
sg16
F212.87907695770264
sg24
g11
sg61
g103
sg63
g30
(g69
S'\x01\x00\x00\x00\x00\x00\x00\x00'
tRp465
sg64
S'stimuli/Faces/N08.pict.jpg'
p466
sg65
g30
(g69
S'\x01\x00\x00\x00\x00\x00\x00\x00'
tRp467
sg40
I1
sa(dp468
S'facesAreFearful'
p469
g30
(g69
S'\x00\x00\x00\x00\x00\x00\x00\x00'
tRp470
sg15
F8.0316171646118164
sS'TrialsInRun.thisRepN'
p471
I0
sg26
g27
sg18
F1.6076908111572266
sg14
F5.0050570964813232
sg29
g33
sS'imgNorth'
p472
S'stimuli/Houses/H01.pict.jpg'
p473
sg20
S"['1.60766005516']"
p474
sg36
g37
sg38
g39
sS'TrialsInRun.thisN'
p475
I0
sg34
g35
sS'targetDimension'
p476
S'NS'
p477
sg17
S'2'
sS'attendedItemsMatch'
p478
g30
(g69
S'\x01\x00\x00\x00\x00\x00\x00\x00'
tRp479
sg28
S'1'
sg25
VA
sS'TrialsInRun.thisTrialN'
p480
I0
sS'TrialsInRun.thisIndex'
p481
g30
(g79
S'\x00\x00\x00\x00'
tRp482
sS'imgWest'
p483
S'stimuli/Faces/N09.pict.jpg'
p484
sg19
S"['2']"
p485
sg41
g42
sg43
g44
sg45
g46
sS'ITI'
p486
g30
(g32
S'333333\x01@'
tRp487
sS'imgSouth'
p488
S'stimuli/Houses/H01.pict.jpg'
p489
sg16
F9.0315620899200439
sg24
g11
sS'correctResponse'
p490
S'IDENTICAL'
p491
sS'nonAttendedItemsMatch'
p492
g30
(g69
S'\x00\x00\x00\x00\x00\x00\x00\x00'
tRp493
sS'imgEast'
p494
S'stimuli/Faces/N04.pict.jpg'
p495
sS'facesAreAttended'
p496
g30
(g69
S'\x00\x00\x00\x00\x00\x00\x00\x00'
tRp497
sg40
I2
sa(dp498
g469
g30
(g69
S'\x01\x00\x00\x00\x00\x00\x00\x00'
tRp499
sg15
F13.401849985122681
sS'TrialsInRun.thisRepN'
p500
I0
sg26
g27
sg14
F5.0050570964813232
sg29
g33
sg472
S'stimuli/Faces/F03.pict.jpg'
p501
sg20
S"['2.81918311119']"
p502
sg36
g37
sg38
g39
sS'TrialsInRun.thisN'
p503
I1
sg34
g35
sg476
g477
sg17
Nsg478
g30
(g69
S'\x01\x00\x00\x00\x00\x00\x00\x00'
tRp504
sg28
S'1'
sg25
VA
sS'TrialsInRun.thisTrialN'
p505
I1
sS'TrialsInRun.thisIndex'
p506
g30
(g79
S'\x01\x00\x00\x00'
tRp507
sg483
S'stimuli/Houses/H13.pict.jpg'
p508
sg19
S"['2']"
p509
sg41
g42
sg43
g44
sg45
g46
sg486
g30
(g32
S'333333\x01@'
tRp510
sg488
S'stimuli/Faces/F03.pict.jpg'
p511
sg16
F14.408358097076416
sg24
g11
sg490
g491
sg492
g30
(g69
S'\x00\x00\x00\x00\x00\x00\x00\x00'
tRp512
sg494
S'stimuli/Houses/H16.pict.jpg'
p513
sg496
g30
(g69
S'\x01\x00\x00\x00\x00\x00\x00\x00'
tRp514
sg40
I2
sa(dp515
g469
g30
(g69
S'\x01\x00\x00\x00\x00\x00\x00\x00'
tRp516
sg15
F18.760979175567627
sS'TrialsInRun.thisRepN'
p517
I0
sg26
g27
sg14
F5.0050570964813232
sg29
g33
sg472
S'stimuli/Houses/H11.pict.jpg'
p518
sg20
S"['2.23595905304']"
p519
sg36
g37
sg38
g39
sS'TrialsInRun.thisN'
p520
I2
sg34
g35
sg476
g477
sg17
Nsg478
g30
(g69
S'\x01\x00\x00\x00\x00\x00\x00\x00'
tRp521
sg28
S'1'
sg25
VA
sS'TrialsInRun.thisTrialN'
p522
I2
sS'TrialsInRun.thisIndex'
p523
g30
(g79
S'\x02\x00\x00\x00'
tRp524
sg483
S'stimuli/Faces/F09.pict.jpg'
p525
sg19
S"['2']"
p526
sg41
g42
sg43
g44
sg45
g46
sg486
g30
(g32
S'333333\x01@'
tRp527
sg488
S'stimuli/Houses/H11.pict.jpg'
p528
sg16
F19.76009202003479
sg24
g11
sg490
g491
sg492
g30
(g69
S'\x01\x00\x00\x00\x00\x00\x00\x00'
tRp529
sg494
S'stimuli/Faces/F09.pict.jpg'
p530
sg496
g30
(g69
S'\x00\x00\x00\x00\x00\x00\x00\x00'
tRp531
sg40
I2
sa(dp532
g469
g30
(g69
S'\x00\x00\x00\x00\x00\x00\x00\x00'
tRp533
sg15
F24.121761083602905
sS'TrialsInRun.thisRepN'
p534
I0
sg26
g27
sg18
F1.6314189434051514
sg14
F5.0050570964813232
sg29
g33
sg472
S'stimuli/Houses/H02.pict.jpg'
p535
sg20
S"['1.63138985634']"
p536
sg36
g37
sg38
g39
sS'TrialsInRun.thisN'
p537
I3
sg34
g35
sg476
g477
sg17
S'2'
sg478
g30
(g69
S'\x00\x00\x00\x00\x00\x00\x00\x00'
tRp538
sg28
S'1'
sg25
VA
sS'TrialsInRun.thisTrialN'
p539
I3
sS'TrialsInRun.thisIndex'
p540
g30
(g79
S'\x03\x00\x00\x00'
tRp541
sg483
S'stimuli/Faces/N08.pict.jpg'
p542
sg19
S"['2']"
p543
sg41
g42
sg43
g44
sg45
g46
sg486
g30
(g32
S'\\\x8f\xc2\xf5(\\#@'
tRp544
sg488
S'stimuli/Houses/H20.pict.jpg'
p545
sg16
F25.130877017974854
sg24
g11
sg490
S'DIFFERENT'
p546
sg492
g30
(g69
S'\x00\x00\x00\x00\x00\x00\x00\x00'
tRp547
sg494
S'stimuli/Faces/N07.pict.jpg'
p548
sg496
g30
(g69
S'\x00\x00\x00\x00\x00\x00\x00\x00'
tRp549
sg40
I2
sa(dp550
g469
g30
(g69
S'\x01\x00\x00\x00\x00\x00\x00\x00'
tRp551
sg15
F37.019622087478638
sS'TrialsInRun.thisRepN'
p552
I0
sg26
g27
sg18
F1.1342620849609375
sg14
F5.0050570964813232
sg29
g33
sg472
S'stimuli/Faces/F01.pict.jpg'
p553
sg20
S"['1.13422703743']"
p554
sg36
g37
sg38
g39
sS'TrialsInRun.thisN'
p555
I4
sg34
g35
sg476
g477
sg17
S'1'
sg478
g30
(g69
S'\x01\x00\x00\x00\x00\x00\x00\x00'
tRp556
sg28
S'1'
sg25
VA
sS'TrialsInRun.thisTrialN'
p557
I4
sS'TrialsInRun.thisIndex'
p558
g30
(g79
S'\x04\x00\x00\x00'
tRp559
sg483
S'stimuli/Houses/H14.pict.jpg'
p560
sg19
S"['1']"
p561
sg41
g42
sg43
g44
sg45
g46
sg486
g30
(g32
S'\xa4p=\n\xd7\xa3\x12@'
tRp562
sg488
S'stimuli/Faces/F01.pict.jpg'
p563
sg16
F38.026987075805664
sg24
g11
sg490
g491
sg492
g30
(g69
S'\x01\x00\x00\x00\x00\x00\x00\x00'
tRp564
sg494
S'stimuli/Houses/H14.pict.jpg'
p565
sg496
g30
(g69
S'\x01\x00\x00\x00\x00\x00\x00\x00'
tRp566
sg40
I2
sa(dp567
g469
g30
(g69
S'\x01\x00\x00\x00\x00\x00\x00\x00'
tRp568
sg15
F44.900621175765991
sS'TrialsInRun.thisRepN'
p569
I0
sg26
g27
sg18
F1.4699840545654297
sg14
F5.0050570964813232
sg29
g33
sg472
S'stimuli/Houses/H10.pict.jpg'
p570
sg20
S"['1.46994590759']"
p571
sg36
g37
sg38
g39
sS'TrialsInRun.thisN'
p572
I5
sg34
g35
sg476
g477
sg17
S'2'
sg478
g30
(g69
S'\x00\x00\x00\x00\x00\x00\x00\x00'
tRp573
sg28
S'1'
sg25
VA
sS'TrialsInRun.thisTrialN'
p574
I5
sS'TrialsInRun.thisIndex'
p575
g30
(g79
S'\x05\x00\x00\x00'
tRp576
sg483
S'stimuli/Faces/F10.pict.jpg'
p577
sg19
S"['2']"
p578
sg41
g42
sg43
g44
sg45
g46
sg486
g30
(g32
S'\xaeG\xe1z\x14\xae\x1c@'
tRp579
sg488
S'stimuli/Houses/H18.pict.jpg'
p580
sg16
F45.901429176330566
sg24
g11
sg490
g546
sg492
g30
(g69
S'\x01\x00\x00\x00\x00\x00\x00\x00'
tRp581
sg494
S'stimuli/Faces/F10.pict.jpg'
p582
sg496
g30
(g69
S'\x00\x00\x00\x00\x00\x00\x00\x00'
tRp583
sg40
I2
sa(dp584
g469
g30
(g69
S'\x00\x00\x00\x00\x00\x00\x00\x00'
tRp585
sg15
F55.284060001373291
sS'TrialsInRun.thisRepN'
p586
I0
sg26
g27
sg18
F1.0605437755584717
sg14
F5.0050570964813232
sg29
g33
sg472
S'stimuli/Faces/N06.pict.jpg'
p587
sg20
S"['1.06050109863']"
p588
sg36
g37
sg38
g39
sS'TrialsInRun.thisN'
p589
I6
sg34
g35
sg476
g477
sg17
S'1'
sg478
g30
(g69
S'\x00\x00\x00\x00\x00\x00\x00\x00'
tRp590
sg28
S'1'
sg25
VA
sS'TrialsInRun.thisTrialN'
p591
I6
sS'TrialsInRun.thisIndex'
p592
g30
(g79
S'\x06\x00\x00\x00'
tRp593
sg483
S'stimuli/Houses/H03.pict.jpg'
p594
sg19
S"['1']"
p595
sg41
g42
sg43
g44
sg45
g46
sg486
g30
(g32
S'\xa4p=\n\xd7\xa3\x12@'
tRp596
sg488
S'stimuli/Faces/N05.pict.jpg'
p597
sg16
F56.280630111694336
sg24
g11
sg490
g546
sg492
g30
(g69
S'\x00\x00\x00\x00\x00\x00\x00\x00'
tRp598
sg494
S'stimuli/Houses/H09.pict.jpg'
p599
sg496
g30
(g69
S'\x01\x00\x00\x00\x00\x00\x00\x00'
tRp600
sg40
I2
sa(dp601
g469
g30
(g69
S'\x00\x00\x00\x00\x00\x00\x00\x00'
tRp602
sg15
F63.157225131988525
sS'TrialsInRun.thisRepN'
p603
I0
sg26
g27
sg14
F5.0050570964813232
sg29
g33
sg472
S'stimuli/Houses/H05.pict.jpg'
p604
sg20
S'[]'
p605
sg36
g37
sg38
g39
sS'TrialsInRun.thisN'
p606
I7
sg34
g35
sg476
g477
sg17
Nsg478
g30
(g69
S'\x00\x00\x00\x00\x00\x00\x00\x00'
tRp607
sg28
S'1'
sg25
VA
sS'TrialsInRun.thisTrialN'
p608
I7
sS'TrialsInRun.thisIndex'
p609
g30
(g79
S'\x07\x00\x00\x00'
tRp610
sg483
S'stimuli/Faces/N03.pict.jpg'
p611
sg19
S'[]'
p612
sg41
g42
sg43
g44
sg45
g46
sg486
g30
(g32
S'\xe1z\x14\xaeGa(@'
tRp613
sg488
S'stimuli/Houses/H06.pict.jpg'
p614
sg16
F64.155419111251831
sg24
g11
sg490
g546
sg492
g30
(g69
S'\x01\x00\x00\x00\x00\x00\x00\x00'
tRp615
sg494
S'stimuli/Faces/N03.pict.jpg'
p616
sg496
g30
(g69
S'\x00\x00\x00\x00\x00\x00\x00\x00'
tRp617
sg40
I2
sa(dp618
g469
g30
(g69
S'\x01\x00\x00\x00\x00\x00\x00\x00'
tRp619
sg15
F78.564305067062378
sS'TrialsInRun.thisRepN'
p620
I0
sg26
g27
sg14
F5.0050570964813232
sg29
g33
sg472
S'stimuli/Houses/H07.pict.jpg'
p621
sg20
S"['2.94027709961']"
p622
sg36
g37
sg38
g39
sS'TrialsInRun.thisN'
p623
I8
sg34
g35
sg476
g477
sg17
Nsg478
g30
(g69
S'\x01\x00\x00\x00\x00\x00\x00\x00'
tRp624
sg28
S'1'
sg25
VA
sS'TrialsInRun.thisTrialN'
p625
I8
sS'TrialsInRun.thisIndex'
p626
g30
(g79
S'\x08\x00\x00\x00'
tRp627
sg483
S'stimuli/Faces/F02.pict.jpg'
p628
sg19
S"['2']"
p629
sg41
g42
sg43
g44
sg45
g46
sg486
g30
(g32
S'\xaeG\xe1z\x14\xae\x1c@'
tRp630
sg488
S'stimuli/Houses/H07.pict.jpg'
p631
sg16
F79.573707103729248
sg24
g11
sg490
g491
sg492
g30
(g69
S'\x00\x00\x00\x00\x00\x00\x00\x00'
tRp632
sg494
S'stimuli/Faces/F07.pict.jpg'
p633
sg496
g30
(g69
S'\x00\x00\x00\x00\x00\x00\x00\x00'
tRp634
sg40
I2
sa(dp635
g469
g30
(g69
S'\x00\x00\x00\x00\x00\x00\x00\x00'
tRp636
sg15
F88.940844058990479
sS'TrialsInRun.thisRepN'
p637
I0
sg26
g27
sg14
F5.0050570964813232
sg29
g33
sg472
S'stimuli/Faces/N10.pict.jpg'
p638
sg20
S'[]'
p639
sg36
g37
sg38
g39
sS'TrialsInRun.thisN'
p640
I9
sg34
g35
sg476
g477
sg17
Nsg478
g30
(g69
S'\x01\x00\x00\x00\x00\x00\x00\x00'
tRp641
sg28
S'1'
sg25
VA
sS'TrialsInRun.thisTrialN'
p642
I9
sS'TrialsInRun.thisIndex'
p643
g30
(g79
S'\t\x00\x00\x00'
tRp644
sg483
S'stimuli/Houses/H15.pict.jpg'
p645
sg19
S'[]'
p646
sg41
g42
sg43
g44
sg45
g46
sg486
g30
(g32
S'333333\x01@'
tRp647
sg488
S'stimuli/Faces/N10.pict.jpg'
p648
sg16
F89.945039987564087
sg24
g11
sg490
g491
sg492
g30
(g69
S'\x00\x00\x00\x00\x00\x00\x00\x00'
tRp649
sg494
S'stimuli/Houses/H08.pict.jpg'
p650
sg496
g30
(g69
S'\x01\x00\x00\x00\x00\x00\x00\x00'
tRp651
sg40
I2
sa(dp652
g469
g30
(g69
S'\x00\x00\x00\x00\x00\x00\x00\x00'
tRp653
sg15
F94.311012029647827
sS'TrialsInRun.thisRepN'
p654
I0
sg26
g27
sg14
F5.0050570964813232
sg29
g33
sg472
S'stimuli/Houses/H17.pict.jpg'
p655
sg20
S"['2.95367193222']"
p656
sg36
g37
sg38
g39
sS'TrialsInRun.thisN'
p657
I10
sg34
g35
sg476
g477
sg17
Nsg478
g30
(g69
S'\x01\x00\x00\x00\x00\x00\x00\x00'
tRp658
sg28
S'1'
sg25
VA
sS'TrialsInRun.thisTrialN'
p659
I10
sS'TrialsInRun.thisIndex'
p660
g30
(g79
S'\n\x00\x00\x00'
tRp661
sg483
S'stimuli/Faces/N02.pict.jpg'
p662
sg19
S"['2']"
p663
sg41
g42
sg43
g44
sg45
g46
sg486
g30
(g32
S'\xe1z\x14\xaeGa(@'
tRp664
sg488
S'stimuli/Houses/H17.pict.jpg'
p665
sg16
F95.323083162307739
sg24
g11
sg490
g491
sg492
g30
(g69
S'\x01\x00\x00\x00\x00\x00\x00\x00'
tRp666
sg494
S'stimuli/Faces/N02.pict.jpg'
p667
sg496
g30
(g69
S'\x00\x00\x00\x00\x00\x00\x00\x00'
tRp668
sg40
I2
sa(dp669
g469
g30
(g69
S'\x01\x00\x00\x00\x00\x00\x00\x00'
tRp670
sg15
F109.70885920524597
sS'TrialsInRun.thisRepN'
p671
I0
sg26
g27
sg18
F1.4864089488983154
sg14
F5.0050570964813232
sg29
g33
sg472
S'stimuli/Faces/F08.pict.jpg'
p672
sg20
S"['1.48636293411']"
p673
sg36
g37
sg38
g39
sS'TrialsInRun.thisN'
p674
I11
sg34
g35
sg476
g477
sg17
S'2'
sg478
g30
(g69
S'\x00\x00\x00\x00\x00\x00\x00\x00'
tRp675
sg28
S'1'
sg25
VA
sS'TrialsInRun.thisTrialN'
p676
I11
sS'TrialsInRun.thisIndex'
p677
g30
(g79
S'\x0b\x00\x00\x00'
tRp678
sg483
S'stimuli/Houses/H04.pict.jpg'
p679
sg19
S"['2']"
p680
sg41
g42
sg43
g44
sg45
g46
sg486
g30
(g32
S'\\\x8f\xc2\xf5(\\#@'
tRp681
sg488
S'stimuli/Faces/F06.pict.jpg'
p682
sg16
F110.71576118469238
sg24
g11
sg490
g546
sg492
g30
(g69
S'\x00\x00\x00\x00\x00\x00\x00\x00'
tRp683
sg494
S'stimuli/Houses/H19.pict.jpg'
p684
sg496
g30
(g69
S'\x01\x00\x00\x00\x00\x00\x00\x00'
tRp685
sg40
I2
sa(dp686
g469
g30
(g69
S'\x01\x00\x00\x00\x00\x00\x00\x00'
tRp687
sg15
F122.59194612503052
sS'TrialsInRun.thisRepN'
p688
I0
sg26
g27
sg18
F1.714832067489624
sg14
F5.0050570964813232
sg29
g33
sg472
S'stimuli/Houses/H12.pict.jpg'
p689
sg20
S"['1.71480202675']"
p690
sg36
g37
sg38
g39
sS'TrialsInRun.thisN'
p691
I12
sg34
g35
sg476
g477
sg17
S'2'
sg478
g30
(g69
S'\x00\x00\x00\x00\x00\x00\x00\x00'
tRp692
sg28
S'1'
sg25
VA
sS'TrialsInRun.thisTrialN'
p693
I12
sS'TrialsInRun.thisIndex'
p694
g30
(g79
S'\x0c\x00\x00\x00'
tRp695
sg483
S'stimuli/Faces/F05.pict.jpg'
p696
sg19
S"['2']"
p697
sg41
g42
sg43
g44
sg45
g46
sg486
g30
(g32
S'\xa4p=\n\xd7\xa3\x12@'
tRp698
sg488
S'stimuli/Houses/H10.pict.jpg'
p699
sg16
F123.59513902664185
sg24
g11
sg490
g546
sg492
g30
(g69
S'\x00\x00\x00\x00\x00\x00\x00\x00'
tRp700
sg494
S'stimuli/Faces/F04.pict.jpg'
p701
sg496
g30
(g69
S'\x00\x00\x00\x00\x00\x00\x00\x00'
tRp702
sg40
I2
sa(dp703
g469
g30
(g69
S'\x00\x00\x00\x00\x00\x00\x00\x00'
tRp704
sg15
F130.46650910377502
sS'TrialsInRun.thisRepN'
p705
I0
sg26
g27
sg18
F1.3349268436431885
sg14
F5.0050570964813232
sg29
g33
sg472
S'stimuli/Faces/N01.pict.jpg'
p706
sg20
S"['1.3348801136']"
p707
sg36
g37
sg38
g39
sS'TrialsInRun.thisN'
p708
I13
sg34
g35
sg476
g477
sg17
S'1'
sg478
g30
(g69
S'\x01\x00\x00\x00\x00\x00\x00\x00'
tRp709
sg28
S'1'
sg25
VA
sS'TrialsInRun.thisTrialN'
p710
I13
sS'TrialsInRun.thisIndex'
p711
g30
(g79
S'\r\x00\x00\x00'
tRp712
sg483
S'stimuli/Houses/H20.pict.jpg'
p713
sg19
S"['1']"
p714
sg41
g42
sg43
g44
sg45
g46
sg486
g30
(g32
S'333333\x01@'
tRp715
sg488
S'stimuli/Faces/N01.pict.jpg'
p716
sg16
F131.46960401535034
sg24
g11
sg490
g491
sg492
g30
(g69
S'\x01\x00\x00\x00\x00\x00\x00\x00'
tRp717
sg494
S'stimuli/Houses/H20.pict.jpg'
p718
sg496
g30
(g69
S'\x01\x00\x00\x00\x00\x00\x00\x00'
tRp719
sg40
I2
sa(dp720
g469
g30
(g69
S'\x00\x00\x00\x00\x00\x00\x00\x00'
tRp721
sg15
F135.83579516410828
sS'TrialsInRun.thisRepN'
p722
I0
sg26
g27
sg18
F1.2916710376739502
sg14
F5.0050570964813232
sg29
g33
sg472
S'stimuli/Faces/N09.pict.jpg'
p723
sg20
S"['1.29162502289']"
p724
sg36
g37
sg38
g39
sS'TrialsInRun.thisN'
p725
I14
sg34
g35
sg476
g477
sg17
S'2'
sg478
g30
(g69
S'\x00\x00\x00\x00\x00\x00\x00\x00'
tRp726
sg28
S'1'
sg25
VA
sS'TrialsInRun.thisTrialN'
p727
I14
sS'TrialsInRun.thisIndex'
p728
g30
(g79
S'\x0e\x00\x00\x00'
tRp729
sg483
g645
sg19
S"['2']"
p730
sg41
g42
sg43
g44
sg45
g46
sg486
g30
(g32
S'333333\x01@'
tRp731
sg488
g716
sg16
F136.84157609939575
sg24
g11
sg490
g546
sg492
g30
(g69
S'\x01\x00\x00\x00\x00\x00\x00\x00'
tRp732
sg494
S'stimuli/Houses/H15.pict.jpg'
p733
sg496
g30
(g69
S'\x01\x00\x00\x00\x00\x00\x00\x00'
tRp734
sg40
I2
sa(dp735
g469
g30
(g69
S'\x01\x00\x00\x00\x00\x00\x00\x00'
tRp736
sg15
F141.21650314331055
sS'TrialsInRun.thisRepN'
p737
I0
sg26
g27
sg18
F1.4570319652557373
sg14
F5.0050570964813232
sg29
g33
sg472
S'stimuli/Faces/F09.pict.jpg'
p738
sg20
S"['1.45695900917']"
p739
sg36
g37
sg38
g39
sS'TrialsInRun.thisN'
p740
I15
sg34
g35
sg476
g477
sg17
S'2'
sg478
g30
(g69
S'\x00\x00\x00\x00\x00\x00\x00\x00'
tRp741
sg28
S'1'
sg25
VA
sS'TrialsInRun.thisTrialN'
p742
I15
sS'TrialsInRun.thisIndex'
p743
g30
(g79
S'\x0f\x00\x00\x00'
tRp744
sg483
g679
sg19
S"['2']"
p745
sg41
g42
sg43
g44
sg45
g46
sg486
g30
(g32
S'\xe1z\x14\xaeGa(@'
tRp746
sg488
S'stimuli/Faces/F10.pict.jpg'
p747
sg16
F142.21534204483032
sg24
g11
sg490
g546
sg492
g30
(g69
S'\x01\x00\x00\x00\x00\x00\x00\x00'
tRp748
sg494
S'stimuli/Houses/H04.pict.jpg'
p749
sg496
g30
(g69
S'\x01\x00\x00\x00\x00\x00\x00\x00'
tRp750
sg40
I2
sa(dp751
g469
g30
(g69
S'\x01\x00\x00\x00\x00\x00\x00\x00'
tRp752
sg15
F156.61246705055237
sS'TrialsInRun.thisRepN'
p753
I0
sg26
g27
sg18
F1.2742190361022949
sg14
F5.0050570964813232
sg29
g33
sg472
S'stimuli/Faces/F02.pict.jpg'
p754
sg20
S"['1.27413487434']"
p755
sg36
g37
sg38
g39
sS'TrialsInRun.thisN'
p756
I16
sg34
g35
sg476
g477
sg17
S'2'
sg478
g30
(g69
S'\x00\x00\x00\x00\x00\x00\x00\x00'
tRp757
sg28
S'1'
sg25
VA
sS'TrialsInRun.thisTrialN'
p758
I16
sS'TrialsInRun.thisIndex'
p759
g30
(g79
S'\x10\x00\x00\x00'
tRp760
sg483
S'stimuli/Houses/H11.pict.jpg'
p761
sg19
S"['2']"
p762
sg41
g42
sg43
g44
sg45
g46
sg486
g30
(g32
S'333333\x01@'
tRp763
sg488
g511
sg16
F157.62021708488464
sg24
g11
sg490
g546
sg492
g30
(g69
S'\x00\x00\x00\x00\x00\x00\x00\x00'
tRp764
sg494
S'stimuli/Houses/H06.pict.jpg'
p765
sg496
g30
(g69
S'\x01\x00\x00\x00\x00\x00\x00\x00'
tRp766
sg40
I2
sa(dp767
g469
g30
(g69
S'\x00\x00\x00\x00\x00\x00\x00\x00'
tRp768
sg15
F161.98198914527893
sS'TrialsInRun.thisRepN'
p769
I0
sg26
g27
sg18
F1.3915548324584961
sg14
F5.0050570964813232
sg29
g33
sg472
g604
sg20
S"['1.39164185524']"
p770
sg36
g37
sg38
g39
sS'TrialsInRun.thisN'
p771
I17
sg34
g35
sg476
g477
sg17
S'1'
sg478
g30
(g69
S'\x01\x00\x00\x00\x00\x00\x00\x00'
tRp772
sg28
S'1'
sg25
VA
sS'TrialsInRun.thisTrialN'
p773
I17
sS'TrialsInRun.thisIndex'
p774
g30
(g79
S'\x11\x00\x00\x00'
tRp775
sg483
S'stimuli/Faces/N04.pict.jpg'
p776
sg19
S"['1']"
p777
sg41
g42
sg43
g44
sg45
g46
sg486
g30
(g32
S'\xaeG\xe1z\x14\xae\x1c@'
tRp778
sg488
S'stimuli/Houses/H05.pict.jpg'
p779
sg16
F162.98413705825806
sg24
g11
sg490
g491
sg492
g30
(g69
S'\x01\x00\x00\x00\x00\x00\x00\x00'
tRp780
sg494
g495
sg496
g30
(g69
S'\x00\x00\x00\x00\x00\x00\x00\x00'
tRp781
sg40
I2
sa(dp782
g469
g30
(g69
S'\x01\x00\x00\x00\x00\x00\x00\x00'
tRp783
sg15
F172.35782909393311
sS'TrialsInRun.thisRepN'
p784
I0
sg26
g27
sg18
F1.7368950843811035
sg14
F5.0050570964813232
sg29
g33
sg472
g553
sg20
S"['1.7368478775']"
p785
sg36
g37
sg38
g39
sS'TrialsInRun.thisN'
p786
I18
sg34
g35
sg476
g477
sg17
S'1'
sg478
g30
(g69
S'\x01\x00\x00\x00\x00\x00\x00\x00'
tRp787
sg28
S'1'
sg25
VA
sS'TrialsInRun.thisTrialN'
p788
I18
sS'TrialsInRun.thisIndex'
p789
g30
(g79
S'\x12\x00\x00\x00'
tRp790
sg483
S'stimuli/Houses/H01.pict.jpg'
p791
sg19
S"['1']"
p792
sg41
g42
sg43
g44
sg45
g46
sg486
g30
(g32
S'\\\x8f\xc2\xf5(\\#@'
tRp793
sg488
g563
sg16
F173.36099314689636
sg24
g11
sg490
g491
sg492
g30
(g69
S'\x01\x00\x00\x00\x00\x00\x00\x00'
tRp794
sg494
S'stimuli/Houses/H01.pict.jpg'
p795
sg496
g30
(g69
S'\x01\x00\x00\x00\x00\x00\x00\x00'
tRp796
sg40
I2
sa(dp797
g469
g30
(g69
S'\x01\x00\x00\x00\x00\x00\x00\x00'
tRp798
sg15
F185.25058698654175
sS'TrialsInRun.thisRepN'
p799
I0
sg26
g27
sg14
F5.0050570964813232
sg29
g33
sg472
S'stimuli/Houses/H14.pict.jpg'
p800
sg20
S"['2.22046303749']"
p801
sg36
g37
sg38
g39
sS'TrialsInRun.thisN'
p802
I19
sg34
g35
sg476
g477
sg17
Nsg478
g30
(g69
S'\x00\x00\x00\x00\x00\x00\x00\x00'
tRp803
sg28
S'1'
sg25
VA
sS'TrialsInRun.thisTrialN'
p804
I19
sS'TrialsInRun.thisIndex'
p805
g30
(g79
S'\x13\x00\x00\x00'
tRp806
sg483
S'stimuli/Faces/F08.pict.jpg'
p807
sg19
S"['2']"
p808
sg41
g42
sg43
g44
sg45
g46
sg486
g30
(g32
S'\xa4p=\n\xd7\xa3\x12@'
tRp809
sg488
S'stimuli/Houses/H13.pict.jpg'
p810
sg16
F186.26234912872314
sg24
g11
sg490
g546
sg492
g30
(g69
S'\x00\x00\x00\x00\x00\x00\x00\x00'
tRp811
sg494
S'stimuli/Faces/F06.pict.jpg'
p812
sg496
g30
(g69
S'\x00\x00\x00\x00\x00\x00\x00\x00'
tRp813
sg40
I2
sa(dp814
g469
g30
(g69
S'\x00\x00\x00\x00\x00\x00\x00\x00'
tRp815
sg15
F193.12648606300354
sS'TrialsInRun.thisRepN'
p816
I0
sg26
g27
sg18
F1.4682719707489014
sg14
F5.0050570964813232
sg29
g33
sg472
g587
sg20
S"['1.46826505661']"
p817
sg36
g37
sg38
g39
sS'TrialsInRun.thisN'
p818
I20
sg34
g35
sg476
g477
sg17
S'2'
sg478
g30
(g69
S'\x00\x00\x00\x00\x00\x00\x00\x00'
tRp819
sg28
S'1'
sg25
VA
sS'TrialsInRun.thisTrialN'
p820
I20
sS'TrialsInRun.thisIndex'
p821
g30
(g79
S'\x14\x00\x00\x00'
tRp822
sg483
S'stimuli/Houses/H17.pict.jpg'
p823
sg19
S"['2']"
p824
sg41
g42
sg43
g44
sg45
g46
sg486
g30
(g32
S'\xa4p=\n\xd7\xa3\x12@'
tRp825
sg488
g597
sg16
F194.13162899017334
sg24
g11
sg490
g546
sg492
g30
(g69
S'\x01\x00\x00\x00\x00\x00\x00\x00'
tRp826
sg494
S'stimuli/Houses/H17.pict.jpg'
p827
sg496
g30
(g69
S'\x01\x00\x00\x00\x00\x00\x00\x00'
tRp828
sg40
I2
sa(dp829
g469
g30
(g69
S'\x00\x00\x00\x00\x00\x00\x00\x00'
tRp830
sg15
F200.99896597862244
sS'TrialsInRun.thisRepN'
p831
I0
sg26
g27
sg18
F1.4567699432373047
sg14
F5.0050570964813232
sg29
g33
sg472
g689
sg20
S"['1.45674109459']"
p832
sg36
g37
sg38
g39
sS'TrialsInRun.thisN'
p833
I21
sg34
g35
sg476
g477
sg17
S'2'
sg478
g30
(g69
S'\x00\x00\x00\x00\x00\x00\x00\x00'
tRp834
sg28
S'1'
sg25
VA
sS'TrialsInRun.thisTrialN'
p835
I21
sS'TrialsInRun.thisIndex'
p836
g30
(g79
S'\x15\x00\x00\x00'
tRp837
sg483
S'stimuli/Faces/N07.pict.jpg'
p838
sg19
S"['2']"
p839
sg41
g42
sg43
g44
sg45
g46
sg486
g30
(g32
S'333333\x01@'
tRp840
sg488
S'stimuli/Houses/H19.pict.jpg'
p841
sg16
F202.0060510635376
sg24
g11
sg490
g546
sg492
g30
(g69
S'\x00\x00\x00\x00\x00\x00\x00\x00'
tRp842
sg494
S'stimuli/Faces/N10.pict.jpg'
p843
sg496
g30
(g69
S'\x00\x00\x00\x00\x00\x00\x00\x00'
tRp844
sg40
I2
sa(dp845
g469
g30
(g69
S'\x01\x00\x00\x00\x00\x00\x00\x00'
tRp846
sg15
F206.35406899452209
sS'TrialsInRun.thisRepN'
p847
I0
sg26
g27
sg18
F1.3627099990844727
sg14
F5.0050570964813232
sg29
g33
sg472
g621
sg20
S"['1.36261510849']"
p848
sg36
g37
sg38
g39
sS'TrialsInRun.thisN'
p849
I22
sg34
g35
sg476
g477
sg17
S'2'
sg478
g30
(g69
S'\x00\x00\x00\x00\x00\x00\x00\x00'
tRp850
sg28
S'1'
sg25
VA
sS'TrialsInRun.thisTrialN'
p851
I22
sS'TrialsInRun.thisIndex'
p852
g30
(g79
S'\x16\x00\x00\x00'
tRp853
sg483
g696
sg19
S"['2']"
p854
sg41
g42
sg43
g44
sg45
g46
sg486
g30
(g32
S'333333\x01@'
tRp855
sg488
g580
sg16
F207.36650204658508
sg24
g11
sg490
g546
sg492
g30
(g69
S'\x01\x00\x00\x00\x00\x00\x00\x00'
tRp856
sg494
S'stimuli/Faces/F05.pict.jpg'
p857
sg496
g30
(g69
S'\x00\x00\x00\x00\x00\x00\x00\x00'
tRp858
sg40
I2
sa(dp859
g469
g30
(g69
S'\x01\x00\x00\x00\x00\x00\x00\x00'
tRp860
sg15
F211.71781611442566
sS'TrialsInRun.thisRepN'
p861
I0
sg26
g27
sg18
F1.4403369426727295
sg14
F5.0050570964813232
sg29
g33
sg472
g535
sg20
S"['1.44027614594']"
p862
sg36
g37
sg38
g39
sS'TrialsInRun.thisN'
p863
I23
sg34
g35
sg476
g477
sg17
S'1'
sg478
g30
(g69
S'\x01\x00\x00\x00\x00\x00\x00\x00'
tRp864
sg28
S'1'
sg25
VA
sS'TrialsInRun.thisTrialN'
p865
I23
sS'TrialsInRun.thisIndex'
p866
g30
(g79
S'\x17\x00\x00\x00'
tRp867
sg483
S'stimuli/Faces/F04.pict.jpg'
p868
sg19
S"['1']"
p869
sg41
g42
sg43
g44
sg45
g46
sg486
g30
(g32
S'333333\x01@'
tRp870
sg488
S'stimuli/Houses/H02.pict.jpg'
p871
sg16
F212.71792316436768
sg24
g11
sg490
g491
sg492
g30
(g69
S'\x01\x00\x00\x00\x00\x00\x00\x00'
tRp872
sg494
g701
sg496
g30
(g69
S'\x00\x00\x00\x00\x00\x00\x00\x00'
tRp873
sg40
I2
sa(dp874
S'facesAreFearful'
p875
g30
(g69
S'\x01\x00\x00\x00\x00\x00\x00\x00'
tRp876
sg15
F8.0332040786743164
sS'TrialsInRun.thisRepN'
p877
I0
sg26
g27
sg18
F1.2435839176177979
sg14
F5.0050599575042725
sg29
g33
sS'imgNorth'
p878
S'stimuli/Faces/F05.pict.jpg'
p879
sg20
S"['1.24357199669']"
p880
sg36
g37
sg38
g39
sS'TrialsInRun.thisN'
p881
I0
sg34
g35
sS'targetDimension'
p882
S'WE'
p883
sg17
S'2'
sS'attendedItemsMatch'
p884
g30
(g69
S'\x01\x00\x00\x00\x00\x00\x00\x00'
tRp885
sg28
S'1'
sg25
VA
sS'TrialsInRun.thisTrialN'
p886
I0
sS'TrialsInRun.thisIndex'
p887
g30
(g79
S'\x00\x00\x00\x00'
tRp888
sS'imgWest'
p889
S'stimuli/Houses/H06.pict.jpg'
p890
sg19
S"['2']"
p891
sg41
g42
sg43
g44
sg45
g46
sS'ITI'
p892
g30
(g32
S'\xa4p=\n\xd7\xa3\x12@'
tRp893
sS'imgSouth'
p894
S'stimuli/Faces/F08.pict.jpg'
p895
sg16
F9.0317680835723877
sg24
g11
sS'correctResponse'
p896
S'IDENTICAL'
p897
sS'nonAttendedItemsMatch'
p898
g30
(g69
S'\x00\x00\x00\x00\x00\x00\x00\x00'
tRp899
sS'imgEast'
p900
S'stimuli/Houses/H06.pict.jpg'
p901
sS'facesAreAttended'
p902
g30
(g69
S'\x00\x00\x00\x00\x00\x00\x00\x00'
tRp903
sg40
I3
sa(dp904
g875
g30
(g69
S'\x01\x00\x00\x00\x00\x00\x00\x00'
tRp905
sg15
F15.9029700756073
sS'TrialsInRun.thisRepN'
p906
I0
sg26
g27
sg14
F5.0050599575042725
sg29
g33
sg878
S'stimuli/Houses/H13.pict.jpg'
p907
sg20
S'[]'
p908
sg36
g37
sg38
g39
sS'TrialsInRun.thisN'
p909
I1
sg34
g35
sg882
g883
sg17
Nsg884
g30
(g69
S'\x00\x00\x00\x00\x00\x00\x00\x00'
tRp910
sg28
S'1'
sg25
VA
sS'TrialsInRun.thisTrialN'
p911
I1
sS'TrialsInRun.thisIndex'
p912
g30
(g79
S'\x01\x00\x00\x00'
tRp913
sg889
S'stimuli/Faces/F03.pict.jpg'
p914
sg19
S'[]'
p915
sg41
g42
sg43
g44
sg45
g46
sg892
g30
(g32
S'\\\x8f\xc2\xf5(\\#@'
tRp916
sg894
S'stimuli/Houses/H01.pict.jpg'
p917
sg16
F16.906194925308228
sg24
g11
sg896
S'DIFFERENT'
p918
sg898
g30
(g69
S'\x00\x00\x00\x00\x00\x00\x00\x00'
tRp919
sg900
S'stimuli/Faces/F06.pict.jpg'
p920
sg902
g30
(g69
S'\x01\x00\x00\x00\x00\x00\x00\x00'
tRp921
sg40
I3
sa(dp922
g875
g30
(g69
S'\x01\x00\x00\x00\x00\x00\x00\x00'
tRp923
sg15
F28.795033931732178
sS'TrialsInRun.thisRepN'
p924
I0
sg26
g27
sg18
F1.8714079856872559
sg14
F5.0050599575042725
sg29
g33
sg878
S'stimuli/Faces/F04.pict.jpg'
p925
sg20
S"['1.87139987946']"
p926
sg36
g37
sg38
g39
sS'TrialsInRun.thisN'
p927
I2
sg34
g35
sg882
g883
sg17
S'2'
sg884
g30
(g69
S'\x00\x00\x00\x00\x00\x00\x00\x00'
tRp928
sg28
S'1'
sg25
VA
sS'TrialsInRun.thisTrialN'
p929
I2
sS'TrialsInRun.thisIndex'
p930
g30
(g79
S'\x02\x00\x00\x00'
tRp931
sg889
S'stimuli/Houses/H14.pict.jpg'
p932
sg19
S"['2']"
p933
sg41
g42
sg43
g44
sg45
g46
sg892
g30
(g32
S'333333\x01@'
tRp934
sg894
S'stimuli/Faces/F02.pict.jpg'
p935
sg16
F29.802503108978271
sg24
g11
sg896
g918
sg898
g30
(g69
S'\x00\x00\x00\x00\x00\x00\x00\x00'
tRp936
sg900
S'stimuli/Houses/H05.pict.jpg'
p937
sg902
g30
(g69
S'\x00\x00\x00\x00\x00\x00\x00\x00'
tRp938
sg40
I3
sa(dp939
g875
g30
(g69
S'\x00\x00\x00\x00\x00\x00\x00\x00'
tRp940
sg15
F34.154039144515991
sS'TrialsInRun.thisRepN'
p941
I0
sg26
g27
sg18
F1.5585861206054688
sg14
F5.0050599575042725
sg29
g33
sg878
S'stimuli/Faces/N10.pict.jpg'
p942
sg20
S"['1.55853700638']"
p943
sg36
g37
sg38
g39
sS'TrialsInRun.thisN'
p944
I3
sg34
g35
sg882
g883
sg17
S'2'
sg884
g30
(g69
S'\x00\x00\x00\x00\x00\x00\x00\x00'
tRp945
sg28
S'1'
sg25
VA
sS'TrialsInRun.thisTrialN'
p946
I3
sS'TrialsInRun.thisIndex'
p947
g30
(g79
S'\x03\x00\x00\x00'
tRp948
sg889
S'stimuli/Houses/H16.pict.jpg'
p949
sg19
S"['2']"
p950
sg41
g42
sg43
g44
sg45
g46
sg892
g30
(g32
S'333333\x01@'
tRp951
sg894
S'stimuli/Faces/N10.pict.jpg'
p952
sg16
F35.157828092575073
sg24
g11
sg896
g918
sg898
g30
(g69
S'\x01\x00\x00\x00\x00\x00\x00\x00'
tRp953
sg900
S'stimuli/Houses/H20.pict.jpg'
p954
sg902
g30
(g69
S'\x00\x00\x00\x00\x00\x00\x00\x00'
tRp955
sg40
I3
sa(dp956
g875
g30
(g69
S'\x00\x00\x00\x00\x00\x00\x00\x00'
tRp957
sg15
F39.530055046081543
sS'TrialsInRun.thisRepN'
p958
I0
sg26
g27
sg18
F1.5685579776763916
sg14
F5.0050599575042725
sg29
g33
sg878
S'stimuli/Houses/H05.pict.jpg'
p959
sg20
S"['1.56849098206']"
p960
sg36
g37
sg38
g39
sS'TrialsInRun.thisN'
p961
I4
sg34
g35
sg882
g883
sg17
S'1'
sg884
g30
(g69
S'\x01\x00\x00\x00\x00\x00\x00\x00'
tRp962
sg28
S'1'
sg25
VA
sS'TrialsInRun.thisTrialN'
p963
I4
sS'TrialsInRun.thisIndex'
p964
g30
(g79
S'\x04\x00\x00\x00'
tRp965
sg889
S'stimuli/Faces/N01.pict.jpg'
p966
sg19
S"['1']"
p967
sg41
g42
sg43
g44
sg45
g46
sg892
g30
(g32
S'\xaeG\xe1z\x14\xae\x1c@'
tRp968
sg894
S'stimuli/Houses/H10.pict.jpg'
p969
sg16
F40.531060934066772
sg24
g11
sg896
g897
sg898
g30
(g69
S'\x00\x00\x00\x00\x00\x00\x00\x00'
tRp970
sg900
S'stimuli/Faces/N01.pict.jpg'
p971
sg902
g30
(g69
S'\x01\x00\x00\x00\x00\x00\x00\x00'
tRp972
sg40
I3
sa(dp973
g875
g30
(g69
S'\x01\x00\x00\x00\x00\x00\x00\x00'
tRp974
sg15
F49.920987129211426
sS'TrialsInRun.thisRepN'
p975
I0
sg26
g27
sg18
F1.2127609252929688
sg14
F5.0050599575042725
sg29
g33
sg878
S'stimuli/Faces/F08.pict.jpg'
p976
sg20
S"['1.21272706985']"
p977
sg36
g37
sg38
g39
sS'TrialsInRun.thisN'
p978
I5
sg34
g35
sg882
g883
sg17
S'1'
sg884
g30
(g69
S'\x01\x00\x00\x00\x00\x00\x00\x00'
tRp979
sg28
S'1'
sg25
VA
sS'TrialsInRun.thisTrialN'
p980
I5
sS'TrialsInRun.thisIndex'
p981
g30
(g79
S'\x05\x00\x00\x00'
tRp982
sg889
S'stimuli/Houses/H19.pict.jpg'
p983
sg19
S"['1']"
p984
sg41
g42
sg43
g44
sg45
g46
sg892
g30
(g32
S'333333\x01@'
tRp985
sg894
g895
sg16
F50.927961111068726
sg24
g11
sg896
g897
sg898
g30
(g69
S'\x01\x00\x00\x00\x00\x00\x00\x00'
tRp986
sg900
S'stimuli/Houses/H19.pict.jpg'
p987
sg902
g30
(g69
S'\x00\x00\x00\x00\x00\x00\x00\x00'
tRp988
sg40
I3
sa(dp989
g875
g30
(g69
S'\x00\x00\x00\x00\x00\x00\x00\x00'
tRp990
sg15
F55.282751083374023
sS'TrialsInRun.thisRepN'
p991
I0
sg26
g27
sg18
F1.377047061920166
sg14
F5.0050599575042725
sg29
g33
sg878
S'stimuli/Faces/N02.pict.jpg'
p992
sg20
S"['1.37695407867']"
p993
sg36
g37
sg38
g39
sS'TrialsInRun.thisN'
p994
I6
sg34
g35
sg882
g883
sg17
S'2'
sg884
g30
(g69
S'\x00\x00\x00\x00\x00\x00\x00\x00'
tRp995
sg28
S'1'
sg25
VA
sS'TrialsInRun.thisTrialN'
p996
I6
sS'TrialsInRun.thisIndex'
p997
g30
(g79
S'\x06\x00\x00\x00'
tRp998
sg889
S'stimuli/Houses/H08.pict.jpg'
p999
sg19
S"['2']"
p1000
sg41
g42
sg43
g44
sg45
g46
sg892
g30
(g32
S'\xa4p=\n\xd7\xa3\x12@'
tRp1001
sg894
S'stimuli/Faces/N07.pict.jpg'
p1002
sg16
F56.28233814239502
sg24
g11
sg896
g918
sg898
g30
(g69
S'\x00\x00\x00\x00\x00\x00\x00\x00'
tRp1003
sg900
S'stimuli/Houses/H15.pict.jpg'
p1004
sg902
g30
(g69
S'\x00\x00\x00\x00\x00\x00\x00\x00'
tRp1005
sg40
I3
sa(dp1006
g875
g30
(g69
S'\x00\x00\x00\x00\x00\x00\x00\x00'
tRp1007
sg15
F63.149904012680054
sS'TrialsInRun.thisRepN'
p1008
I0
sg26
g27
sg18
F1.1524679660797119
sg14
F5.0050599575042725
sg29
g33
sg878
S'stimuli/Houses/H06.pict.jpg'
p1009
sg20
S"['1.15235495567']"
p1010
sg36
g37
sg38
g39
sS'TrialsInRun.thisN'
p1011
I7
sg34
g35
sg882
g883
sg17
S'1'
sg884
g30
(g69
S'\x01\x00\x00\x00\x00\x00\x00\x00'
tRp1012
sg28
S'1'
sg25
VA
sS'TrialsInRun.thisTrialN'
p1013
I7
sS'TrialsInRun.thisIndex'
p1014
g30
(g79
S'\x07\x00\x00\x00'
tRp1015
sg889
S'stimuli/Faces/N04.pict.jpg'
p1016
sg19
S"['1']"
p1017
sg41
g42
sg43
g44
sg45
g46
sg892
g30
(g32
S'\xe1z\x14\xaeGa(@'
tRp1018
sg894
S'stimuli/Houses/H06.pict.jpg'
p1019
sg16
F64.154185056686401
sg24
g11
sg896
g897
sg898
g30
(g69
S'\x01\x00\x00\x00\x00\x00\x00\x00'
tRp1020
sg900
S'stimuli/Faces/N04.pict.jpg'
p1021
sg902
g30
(g69
S'\x01\x00\x00\x00\x00\x00\x00\x00'
tRp1022
sg40
I3
sa(dp1023
g875
g30
(g69
S'\x00\x00\x00\x00\x00\x00\x00\x00'
tRp1024
sg15
F78.544556140899658
sS'TrialsInRun.thisRepN'
p1025
I0
sg26
g27
sg18
F1.4274988174438477
sg14
F5.0050599575042725
sg29
g33
sg878
g942
sg20
S"['1.42749094963']"
p1026
sg36
g37
sg38
g39
sS'TrialsInRun.thisN'
p1027
I8
sg34
g35
sg882
g883
sg17
S'1'
sg884
g30
(g69
S'\x01\x00\x00\x00\x00\x00\x00\x00'
tRp1028
sg28
S'1'
sg25
VA
sS'TrialsInRun.thisTrialN'
p1029
I8
sS'TrialsInRun.thisIndex'
p1030
g30
(g79
S'\x08\x00\x00\x00'
tRp1031
sg889
S'stimuli/Houses/H02.pict.jpg'
p1032
sg19
S"['1']"
p1033
sg41
g42
sg43
g44
sg45
g46
sg892
g30
(g32
S'\\\x8f\xc2\xf5(\\#@'
tRp1034
sg894
S'stimuli/Faces/N09.pict.jpg'
p1035
sg16
F79.551635026931763
sg24
g11
sg896
g897
sg898
g30
(g69
S'\x00\x00\x00\x00\x00\x00\x00\x00'
tRp1036
sg900
S'stimuli/Houses/H02.pict.jpg'
p1037
sg902
g30
(g69
S'\x00\x00\x00\x00\x00\x00\x00\x00'
tRp1038
sg40
I3
sa(dp1039
g875
g30
(g69
S'\x01\x00\x00\x00\x00\x00\x00\x00'
tRp1040
sg15
F91.443956136703491
sS'TrialsInRun.thisRepN'
p1041
I0
sg26
g27
sg18
F2.1691780090332031
sg14
F5.0050599575042725
sg29
g33
sg878
S'stimuli/Houses/H18.pict.jpg'
p1042
sg20
S"['2.16912198067']"
p1043
sg36
g37
sg38
g39
sS'TrialsInRun.thisN'
p1044
I9
sg34
g35
sg882
g883
sg17
S'2'
sg884
g30
(g69
S'\x00\x00\x00\x00\x00\x00\x00\x00'
tRp1045
sg28
S'1'
sg25
VA
sS'TrialsInRun.thisTrialN'
p1046
I9
sS'TrialsInRun.thisIndex'
p1047
g30
(g79
S'\t\x00\x00\x00'
tRp1048
sg889
g914
sg19
S"['2']"
p1049
sg41
g42
sg43
g44
sg45
g46
sg892
g30
(g32
S'333333\x01@'
tRp1050
sg894
S'stimuli/Houses/H12.pict.jpg'
p1051
sg16
F92.447873115539551
sg24
g11
sg896
g918
sg898
g30
(g69
S'\x00\x00\x00\x00\x00\x00\x00\x00'
tRp1052
sg900
S'stimuli/Faces/F07.pict.jpg'
p1053
sg902
g30
(g69
S'\x01\x00\x00\x00\x00\x00\x00\x00'
tRp1054
sg40
I3
sa(dp1055
g875
g30
(g69
S'\x00\x00\x00\x00\x00\x00\x00\x00'
tRp1056
sg15
F96.819597959518433
sS'TrialsInRun.thisRepN'
p1057
I0
sg26
g27
sg18
F1.3352189064025879
sg14
F5.0050599575042725
sg29
g33
sg878
S'stimuli/Faces/N05.pict.jpg'
p1058
sg20
S"['1.33519077301']"
p1059
sg36
g37
sg38
g39
sS'TrialsInRun.thisN'
p1060
I10
sg34
g35
sg882
g883
sg17
S'2'
sg884
g30
(g69
S'\x00\x00\x00\x00\x00\x00\x00\x00'
tRp1061
sg28
S'1'
sg25
VA
sS'TrialsInRun.thisTrialN'
p1062
I10
sS'TrialsInRun.thisIndex'
p1063
g30
(g79
S'\n\x00\x00\x00'
tRp1064
sg889
S'stimuli/Houses/H01.pict.jpg'
p1065
sg19
S"['2']"
p1066
sg41
g42
sg43
g44
sg45
g46
sg892
g30
(g32
S'\xaeG\xe1z\x14\xae\x1c@'
tRp1067
sg894
S'stimuli/Faces/N05.pict.jpg'
p1068
sg16
F97.819828987121582
sg24
g11
sg896
g918
sg898
g30
(g69
S'\x01\x00\x00\x00\x00\x00\x00\x00'
tRp1069
sg900
S'stimuli/Houses/H11.pict.jpg'
p1070
sg902
g30
(g69
S'\x00\x00\x00\x00\x00\x00\x00\x00'
tRp1071
sg40
I3
sa(dp1072
g875
g30
(g69
S'\x01\x00\x00\x00\x00\x00\x00\x00'
tRp1073
sg15
F107.21051907539368
sS'TrialsInRun.thisRepN'
p1074
I0
sg26
g27
sg18
F1.4292359352111816
sg14
F5.0050599575042725
sg29
g33
sg878
S'stimuli/Faces/F09.pict.jpg'
p1075
sg20
S"['1.42914104462']"
p1076
sg36
g37
sg38
g39
sS'TrialsInRun.thisN'
p1077
I11
sg34
g35
sg882
g883
sg17
S'2'
sg884
g30
(g69
S'\x00\x00\x00\x00\x00\x00\x00\x00'
tRp1078
sg28
S'1'
sg25
VA
sS'TrialsInRun.thisTrialN'
p1079
I11
sS'TrialsInRun.thisIndex'
p1080
g30
(g79
S'\x0b\x00\x00\x00'
tRp1081
sg889
S'stimuli/Houses/H13.pict.jpg'
p1082
sg19
S"['2']"
p1083
sg41
g42
sg43
g44
sg45
g46
sg892
g30
(g32
S'333333\x01@'
tRp1084
sg894
S'stimuli/Faces/F09.pict.jpg'
p1085
sg16
F108.21872711181641
sg24
g11
sg896
g918
sg898
g30
(g69
S'\x01\x00\x00\x00\x00\x00\x00\x00'
tRp1086
sg900
S'stimuli/Houses/H04.pict.jpg'
p1087
sg902
g30
(g69
S'\x00\x00\x00\x00\x00\x00\x00\x00'
tRp1088
sg40
I3
sa(dp1089
g875
g30
(g69
S'\x00\x00\x00\x00\x00\x00\x00\x00'
tRp1090
sg15
F112.5703649520874
sS'TrialsInRun.thisRepN'
p1091
I0
sg26
g27
sg18
F1.3237640857696533
sg14
F5.0050599575042725
sg29
g33
sg878
S'stimuli/Houses/H09.pict.jpg'
p1092
sg20
S"['1.32361221313']"
p1093
sg36
g37
sg38
g39
sS'TrialsInRun.thisN'
p1094
I12
sg34
g35
sg882
g883
sg17
S'1'
sg884
g30
(g69
S'\x01\x00\x00\x00\x00\x00\x00\x00'
tRp1095
sg28
S'1'
sg25
VA
sS'TrialsInRun.thisTrialN'
p1096
I12
sS'TrialsInRun.thisIndex'
p1097
g30
(g79
S'\x0c\x00\x00\x00'
tRp1098
sg889
S'stimuli/Faces/N08.pict.jpg'
p1099
sg19
S"['1']"
p1100
sg41
g42
sg43
g44
sg45
g46
sg892
g30
(g32
S'\xa4p=\n\xd7\xa3\x12@'
tRp1101
sg894
S'stimuli/Houses/H09.pict.jpg'
p1102
sg16
F113.56993913650513
sg24
g11
sg896
g897
sg898
g30
(g69
S'\x01\x00\x00\x00\x00\x00\x00\x00'
tRp1103
sg900
S'stimuli/Faces/N08.pict.jpg'
p1104
sg902
g30
(g69
S'\x01\x00\x00\x00\x00\x00\x00\x00'
tRp1105
sg40
I3
sa(dp1106
g875
g30
(g69
S'\x00\x00\x00\x00\x00\x00\x00\x00'
tRp1107
sg15
F120.44743204116821
sS'TrialsInRun.thisRepN'
p1108
I0
sg26
g27
sg18
F1.3685770034790039
sg14
F5.0050599575042725
sg29
g33
sg878
S'stimuli/Houses/H17.pict.jpg'
p1109
sg20
S"['1.36849498749']"
p1110
sg36
g37
sg38
g39
sS'TrialsInRun.thisN'
p1111
I13
sg34
g35
sg882
g883
sg17
S'1'
sg884
g30
(g69
S'\x01\x00\x00\x00\x00\x00\x00\x00'
tRp1112
sg28
S'1'
sg25
VA
sS'TrialsInRun.thisTrialN'
p1113
I13
sS'TrialsInRun.thisIndex'
p1114
g30
(g79
S'\r\x00\x00\x00'
tRp1115
sg889
S'stimuli/Faces/N06.pict.jpg'
p1116
sg19
S"['1']"
p1117
sg41
g42
sg43
g44
sg45
g46
sg892
g30
(g32
S'333333\x01@'
tRp1118
sg894
S'stimuli/Houses/H07.pict.jpg'
p1119
sg16
F121.44531607627869
sg24
g11
sg896
g897
sg898
g30
(g69
S'\x00\x00\x00\x00\x00\x00\x00\x00'
tRp1120
sg900
S'stimuli/Faces/N06.pict.jpg'
p1121
sg902
g30
(g69
S'\x01\x00\x00\x00\x00\x00\x00\x00'
tRp1122
sg40
I3
sa(dp1123
g875
g30
(g69
S'\x01\x00\x00\x00\x00\x00\x00\x00'
tRp1124
sg15
F125.80672097206116
sS'TrialsInRun.thisRepN'
p1125
I0
sg26
g27
sg18
F1.2711451053619385
sg14
F5.0050599575042725
sg29
g33
sg878
S'stimuli/Houses/H03.pict.jpg'
p1126
sg20
S"['1.2711379528']"
p1127
sg36
g37
sg38
g39
sS'TrialsInRun.thisN'
p1128
I14
sg34
g35
sg882
g883
sg17
S'1'
sg884
g30
(g69
S'\x01\x00\x00\x00\x00\x00\x00\x00'
tRp1129
sg28
S'1'
sg25
VA
sS'TrialsInRun.thisTrialN'
p1130
I14
sS'TrialsInRun.thisIndex'
p1131
g30
(g79
S'\x0e\x00\x00\x00'
tRp1132
sg889
S'stimuli/Faces/F01.pict.jpg'
p1133
sg19
S"['1']"
p1134
sg41
g42
sg43
g44
sg45
g46
sg892
g30
(g32
S'\xe1z\x14\xaeGa(@'
tRp1135
sg894
S'stimuli/Houses/H03.pict.jpg'
p1136
sg16
F126.81512904167175
sg24
g11
sg896
g897
sg898
g30
(g69
S'\x01\x00\x00\x00\x00\x00\x00\x00'
tRp1137
sg900
S'stimuli/Faces/F01.pict.jpg'
p1138
sg902
g30
(g69
S'\x01\x00\x00\x00\x00\x00\x00\x00'
tRp1139
sg40
I3
sa(dp1140
g875
g30
(g69
S'\x00\x00\x00\x00\x00\x00\x00\x00'
tRp1141
sg15
F141.21452593803406
sS'TrialsInRun.thisRepN'
p1142
I0
sg26
g27
sg18
F1.5503849983215332
sg14
F5.0050599575042725
sg29
g33
sg878
S'stimuli/Faces/N03.pict.jpg'
p1143
sg20
S"['1.550303936']"
p1144
sg36
g37
sg38
g39
sS'TrialsInRun.thisN'
p1145
I15
sg34
g35
sg882
g883
sg17
S'2'
sg884
g30
(g69
S'\x00\x00\x00\x00\x00\x00\x00\x00'
tRp1146
sg28
S'1'
sg25
VA
sS'TrialsInRun.thisTrialN'
p1147
I15
sS'TrialsInRun.thisIndex'
p1148
g30
(g79
S'\x0f\x00\x00\x00'
tRp1149
sg889
g932
sg19
S"['2']"
p1150
sg41
g42
sg43
g44
sg45
g46
sg892
g30
(g32
S'\xaeG\xe1z\x14\xae\x1c@'
tRp1151
sg894
g952
sg16
F142.21462297439575
sg24
g11
sg896
g918
sg898
g30
(g69
S'\x00\x00\x00\x00\x00\x00\x00\x00'
tRp1152
sg900
S'stimuli/Houses/H03.pict.jpg'
p1153
sg902
g30
(g69
S'\x00\x00\x00\x00\x00\x00\x00\x00'
tRp1154
sg40
I3
sa(dp1155
g875
g30
(g69
S'\x01\x00\x00\x00\x00\x00\x00\x00'
tRp1156
sg15
F151.60148906707764
sS'TrialsInRun.thisRepN'
p1157
I0
sg26
g27
sg18
F1.9405701160430908
sg14
F5.0050599575042725
sg29
g33
sg878
S'stimuli/Faces/F10.pict.jpg'
p1158
sg20
S"['1.94067502022']"
p1159
sg36
g37
sg38
g39
sS'TrialsInRun.thisN'
p1160
I16
sg34
g35
sg882
g883
sg17
S'2'
sg884
g30
(g69
S'\x01\x00\x00\x00\x00\x00\x00\x00'
tRp1161
sg28
S'1'
sg25
VA
sS'TrialsInRun.thisTrialN'
p1162
I16
sS'TrialsInRun.thisIndex'
p1163
g30
(g79
S'\x10\x00\x00\x00'
tRp1164
sg889
g999
sg19
S"['2']"
p1165
sg41
g42
sg43
g44
sg45
g46
sg892
g30
(g32
S'\\\x8f\xc2\xf5(\\#@'
tRp1166
sg894
S'stimuli/Faces/F10.pict.jpg'
p1167
sg16
F152.60729503631592
sg24
g11
sg896
g897
sg898
g30
(g69
S'\x01\x00\x00\x00\x00\x00\x00\x00'
tRp1168
sg900
S'stimuli/Houses/H08.pict.jpg'
p1169
sg902
g30
(g69
S'\x00\x00\x00\x00\x00\x00\x00\x00'
tRp1170
sg40
I3
sa(dp1171
g875
g30
(g69
S'\x01\x00\x00\x00\x00\x00\x00\x00'
tRp1172
sg15
F164.49706196784973
sS'TrialsInRun.thisRepN'
p1173
I0
sg26
g27
sg14
F5.0050599575042725
sg29
g33
sg878
g879
sg20
S"['2.80473995209']"
p1174
sg36
g37
sg38
g39
sS'TrialsInRun.thisN'
p1175
I17
sg34
g35
sg882
g883
sg17
Nsg884
g30
(g69
S'\x01\x00\x00\x00\x00\x00\x00\x00'
tRp1176
sg28
S'1'
sg25
VA
sS'TrialsInRun.thisTrialN'
p1177
I17
sS'TrialsInRun.thisIndex'
p1178
g30
(g79
S'\x11\x00\x00\x00'
tRp1179
sg889
g983
sg19
S"['2']"
p1180
sg41
g42
sg43
g44
sg45
g46
sg892
g30
(g32
S'\xa4p=\n\xd7\xa3\x12@'
tRp1181
sg894
g1167
sg16
F165.50836205482483
sg24
g11
sg896
g897
sg898
g30
(g69
S'\x00\x00\x00\x00\x00\x00\x00\x00'
tRp1182
sg900
g987
sg902
g30
(g69
S'\x00\x00\x00\x00\x00\x00\x00\x00'
tRp1183
sg40
I3
sa(dp1184
g875
g30
(g69
S'\x01\x00\x00\x00\x00\x00\x00\x00'
tRp1185
sg15
F172.37390613555908
sS'TrialsInRun.thisRepN'
p1186
I0
sg26
g27
sg18
F1.6957039833068848
sg14
F5.0050599575042725
sg29
g33
sg878
g879
sg20
S"['1.69556903839']"
p1187
sg36
g37
sg38
g39
sS'TrialsInRun.thisN'
p1188
I18
sg34
g35
sg882
g883
sg17
S'2'
sg884
g30
(g69
S'\x00\x00\x00\x00\x00\x00\x00\x00'
tRp1189
sg28
S'1'
sg25
VA
sS'TrialsInRun.thisTrialN'
p1190
I18
sS'TrialsInRun.thisIndex'
p1191
g30
(g79
S'\x12\x00\x00\x00'
tRp1192
sg889
S'stimuli/Houses/H15.pict.jpg'
p1193
sg19
S"['2']"
p1194
sg41
g42
sg43
g44
sg45
g46
sg892
g30
(g32
S'\xa4p=\n\xd7\xa3\x12@'
tRp1195
sg894
g1085
sg16
F173.38372302055359
sg24
g11
sg896
g918
sg898
g30
(g69
S'\x00\x00\x00\x00\x00\x00\x00\x00'
tRp1196
sg900
S'stimuli/Houses/H10.pict.jpg'
p1197
sg902
g30
(g69
S'\x00\x00\x00\x00\x00\x00\x00\x00'
tRp1198
sg40
I3
sa(dp1199
g875
g30
(g69
S'\x01\x00\x00\x00\x00\x00\x00\x00'
tRp1200
sg15
F180.24405097961426
sS'TrialsInRun.thisRepN'
p1201
I0
sg26
g27
sg18
F1.5811769962310791
sg14
F5.0050599575042725
sg29
g33
sg878
S'stimuli/Houses/H14.pict.jpg'
p1202
sg20
S"['1.5810739994']"
p1203
sg36
g37
sg38
g39
sS'TrialsInRun.thisN'
p1204
I19
sg34
g35
sg882
g883
sg17
S'2'
sg884
g30
(g69
S'\x00\x00\x00\x00\x00\x00\x00\x00'
tRp1205
sg28
S'1'
sg25
VA
sS'TrialsInRun.thisTrialN'
p1206
I19
sS'TrialsInRun.thisIndex'
p1207
g30
(g79
S'\x13\x00\x00\x00'
tRp1208
sg889
g1133
sg19
S"['2']"
p1209
sg41
g42
sg43
g44
sg45
g46
sg892
g30
(g32
S'\xe1z\x14\xaeGa(@'
tRp1210
sg894
S'stimuli/Houses/H14.pict.jpg'
p1211
sg16
F181.25955200195312
sg24
g11
sg896
g918
sg898
g30
(g69
S'\x01\x00\x00\x00\x00\x00\x00\x00'
tRp1212
sg900
S'stimuli/Faces/F03.pict.jpg'
p1213
sg902
g30
(g69
S'\x01\x00\x00\x00\x00\x00\x00\x00'
tRp1214
sg40
I3
sa(dp1215
g875
g30
(g69
S'\x00\x00\x00\x00\x00\x00\x00\x00'
tRp1216
sg15
F195.64349412918091
sS'TrialsInRun.thisRepN'
p1217
I0
sg26
g27
sg18
F1.8740510940551758
sg14
F5.0050599575042725
sg29
g33
sg878
S'stimuli/Faces/N09.pict.jpg'
p1218
sg20
S"['1.87403917313']"
p1219
sg36
g37
sg38
g39
sS'TrialsInRun.thisN'
p1220
I20
sg34
g35
sg882
g883
sg17
S'2'
sg884
g30
(g69
S'\x01\x00\x00\x00\x00\x00\x00\x00'
tRp1221
sg28
S'1'
sg25
VA
sS'TrialsInRun.thisTrialN'
p1222
I20
sS'TrialsInRun.thisIndex'
p1223
g30
(g79
S'\x14\x00\x00\x00'
tRp1224
sg889
g949
sg19
S"['2']"
p1225
sg41
g42
sg43
g44
sg45
g46
sg892
g30
(g32
S'333333\x01@'
tRp1226
sg894
g1035
sg16
F196.65100407600403
sg24
g11
sg896
g897
sg898
g30
(g69
S'\x01\x00\x00\x00\x00\x00\x00\x00'
tRp1227
sg900
S'stimuli/Houses/H16.pict.jpg'
p1228
sg902
g30
(g69
S'\x00\x00\x00\x00\x00\x00\x00\x00'
tRp1229
sg40
I3
sa(dp1230
g875
g30
(g69
S'\x00\x00\x00\x00\x00\x00\x00\x00'
tRp1231
sg15
F201.00171899795532
sS'TrialsInRun.thisRepN'
p1232
I0
sg26
g27
sg18
F1.7366960048675537
sg14
F5.0050599575042725
sg29
g33
sg878
S'stimuli/Houses/H07.pict.jpg'
p1233
sg20
S"['1.73667693138']"
p1234
sg36
g37
sg38
g39
sS'TrialsInRun.thisN'
p1235
I21
sg34
g35
sg882
g883
sg17
S'2'
sg884
g30
(g69
S'\x00\x00\x00\x00\x00\x00\x00\x00'
tRp1236
sg28
S'1'
sg25
VA
sS'TrialsInRun.thisTrialN'
p1237
I21
sS'TrialsInRun.thisIndex'
p1238
g30
(g79
S'\x15\x00\x00\x00'
tRp1239
sg889
g966
sg19
S"['2']"
p1240
sg41
g42
sg43
g44
sg45
g46
sg892
g30
(g32
S'333333\x01@'
tRp1241
sg894
g1119
sg16
F202.00636696815491
sg24
g11
sg896
g918
sg898
g30
(g69
S'\x01\x00\x00\x00\x00\x00\x00\x00'
tRp1242
sg900
g1021
sg902
g30
(g69
S'\x01\x00\x00\x00\x00\x00\x00\x00'
tRp1243
sg40
I3
sa(dp1244
g875
g30
(g69
S'\x01\x00\x00\x00\x00\x00\x00\x00'
tRp1245
sg15
F206.35465598106384
sS'TrialsInRun.thisRepN'
p1246
I0
sg26
g27
sg18
F1.5517840385437012
sg14
F5.0050599575042725
sg29
g33
sg878
g1042
sg20
S"['1.55167794228']"
p1247
sg36
g37
sg38
g39
sS'TrialsInRun.thisN'
p1248
I22
sg34
g35
sg882
g883
sg17
S'1'
sg884
g30
(g69
S'\x01\x00\x00\x00\x00\x00\x00\x00'
tRp1249
sg28
S'1'
sg25
VA
sS'TrialsInRun.thisTrialN'
p1250
I22
sS'TrialsInRun.thisIndex'
p1251
g30
(g79
S'\x16\x00\x00\x00'
tRp1252
sg889
S'stimuli/Faces/F02.pict.jpg'
p1253
sg19
S"['1']"
p1254
sg41
g42
sg43
g44
sg45
g46
sg892
g30
(g32
S'333333\x01@'
tRp1255
sg894
S'stimuli/Houses/H02.pict.jpg'
p1256
sg16
F207.36717414855957
sg24
g11
sg896
g897
sg898
g30
(g69
S'\x00\x00\x00\x00\x00\x00\x00\x00'
tRp1257
sg900
S'stimuli/Faces/F02.pict.jpg'
p1258
sg902
g30
(g69
S'\x01\x00\x00\x00\x00\x00\x00\x00'
tRp1259
sg40
I3
sa(dp1260
g875
g30
(g69
S'\x00\x00\x00\x00\x00\x00\x00\x00'
tRp1261
sg15
F211.72180199623108
sS'TrialsInRun.thisRepN'
p1262
I0
sg26
g27
sg18
F1.8707418441772461
sg14
F5.0050599575042725
sg29
g33
sg878
g1009
sg20
S"['1.87065505981']"
p1263
sg36
g37
sg38
g39
sS'TrialsInRun.thisN'
p1264
I23
sg34
g35
sg882
g883
sg17
S'2'
sg884
g30
(g69
S'\x00\x00\x00\x00\x00\x00\x00\x00'
tRp1265
sg28
S'1'
sg25
VA
sS'TrialsInRun.thisTrialN'
p1266
I23
sS'TrialsInRun.thisIndex'
p1267
g30
(g79
S'\x17\x00\x00\x00'
tRp1268
sg889
S'stimuli/Faces/N03.pict.jpg'
p1269
sg19
S"['2']"
p1270
sg41
g42
sg43
g44
sg45
g46
sg892
g30
(g32
S'333333\x01@'
tRp1271
sg894
S'stimuli/Houses/H05.pict.jpg'
p1272
sg16
F212.72139692306519
sg24
g11
sg896
g918
sg898
g30
(g69
S'\x00\x00\x00\x00\x00\x00\x00\x00'
tRp1273
sg900
S'stimuli/Faces/N05.pict.jpg'
p1274
sg902
g30
(g69
S'\x01\x00\x00\x00\x00\x00\x00\x00'
tRp1275
sg40
I3
sa(dp1276
S'facesAreFearful'
p1277
g30
(g69
S'\x00\x00\x00\x00\x00\x00\x00\x00'
tRp1278
sg15
F8.0300629138946533
sS'TrialsInRun.thisRepN'
p1279
I0
sg26
g27
sg18
F1.7272469997406006
sg14
F5.0051159858703613
sg29
g33
sS'imgNorth'
p1280
S'stimuli/Faces/N03.pict.jpg'
p1281
sg20
S"['1.72717690468']"
p1282
sg36
g37
sg38
g39
sS'TrialsInRun.thisN'
p1283
I0
sg34
g35
sS'targetDimension'
p1284
S'NS'
p1285
sg17
S'1'
sS'attendedItemsMatch'
p1286
g30
(g69
S'\x01\x00\x00\x00\x00\x00\x00\x00'
tRp1287
sg28
S'1'
sg25
VA
sS'TrialsInRun.thisTrialN'
p1288
I0
sS'TrialsInRun.thisIndex'
p1289
g30
(g79
S'\x00\x00\x00\x00'
tRp1290
sS'imgWest'
p1291
S'stimuli/Houses/H08.pict.jpg'
p1292
sg19
S"['1']"
p1293
sg41
g42
sg43
g44
sg45
g46
sS'ITI'
p1294
g30
(g32
S'\xaeG\xe1z\x14\xae\x1c@'
tRp1295
sS'imgSouth'
p1296
S'stimuli/Faces/N03.pict.jpg'
p1297
sg16
F9.0299959182739258
sg24
g11
sS'correctResponse'
p1298
S'IDENTICAL'
p1299
sS'nonAttendedItemsMatch'
p1300
g30
(g69
S'\x01\x00\x00\x00\x00\x00\x00\x00'
tRp1301
sS'imgEast'
p1302
S'stimuli/Houses/H08.pict.jpg'
p1303
sS'facesAreAttended'
p1304
g30
(g69
S'\x01\x00\x00\x00\x00\x00\x00\x00'
tRp1305
sg40
I4
sa(dp1306
g1277
g30
(g69
S'\x00\x00\x00\x00\x00\x00\x00\x00'
tRp1307
sg15
F18.414101123809814
sS'TrialsInRun.thisRepN'
p1308
I0
sg26
g27
sg18
F1.8355059623718262
sg14
F5.0051159858703613
sg29
g33
sg1280
S'stimuli/Faces/N08.pict.jpg'
p1309
sg20
S"['1.83545017242']"
p1310
sg36
g37
sg38
g39
sS'TrialsInRun.thisN'
p1311
I1
sg34
g35
sg1284
g1285
sg17
S'1'
sg1286
g30
(g69
S'\x01\x00\x00\x00\x00\x00\x00\x00'
tRp1312
sg28
S'1'
sg25
VA
sS'TrialsInRun.thisTrialN'
p1313
I1
sS'TrialsInRun.thisIndex'
p1314
g30
(g79
S'\x01\x00\x00\x00'
tRp1315
sg1291
S'stimuli/Houses/H16.pict.jpg'
p1316
sg19
S"['1']"
p1317
sg41
g42
sg43
g44
sg45
g46
sg1294
g30
(g32
S'333333\x01@'
tRp1318
sg1296
S'stimuli/Faces/N08.pict.jpg'
p1319
sg16
F19.420053958892822
sg24
g11
sg1298
g1299
sg1300
g30
(g69
S'\x00\x00\x00\x00\x00\x00\x00\x00'
tRp1320
sg1302
S'stimuli/Houses/H03.pict.jpg'
p1321
sg1304
g30
(g69
S'\x01\x00\x00\x00\x00\x00\x00\x00'
tRp1322
sg40
I4
sa(dp1323
g1277
g30
(g69
S'\x00\x00\x00\x00\x00\x00\x00\x00'
tRp1324
sg15
F23.790735006332397
sS'TrialsInRun.thisRepN'
p1325
I0
sg26
g27
sg18
F1.3261220455169678
sg14
F5.0051159858703613
sg29
g33
sg1280
S'stimuli/Houses/H09.pict.jpg'
p1326
sg20
S"['1.3261179924']"
p1327
sg36
g37
sg38
g39
sS'TrialsInRun.thisN'
p1328
I2
sg34
g35
sg1284
g1285
sg17
S'2'
sg1286
g30
(g69
S'\x00\x00\x00\x00\x00\x00\x00\x00'
tRp1329
sg28
S'1'
sg25
VA
sS'TrialsInRun.thisTrialN'
p1330
I2
sS'TrialsInRun.thisIndex'
p1331
g30
(g79
S'\x02\x00\x00\x00'
tRp1332
sg1291
S'stimuli/Faces/N02.pict.jpg'
p1333
sg19
S"['2']"
p1334
sg41
g42
sg43
g44
sg45
g46
sg1294
g30
(g32
S'333333\x01@'
tRp1335
sg1296
S'stimuli/Houses/H18.pict.jpg'
p1336
sg16
F24.792099952697754
sg24
g11
sg1298
S'DIFFERENT'
p1337
sg1300
g30
(g69
S'\x01\x00\x00\x00\x00\x00\x00\x00'
tRp1338
sg1302
S'stimuli/Faces/N02.pict.jpg'
p1339
sg1304
g30
(g69
S'\x00\x00\x00\x00\x00\x00\x00\x00'
tRp1340
sg40
I4
sa(dp1341
g1277
g30
(g69
S'\x01\x00\x00\x00\x00\x00\x00\x00'
tRp1342
sg15
F29.162204027175903
sS'TrialsInRun.thisRepN'
p1343
I0
sg26
g27
sg18
F0.80819296836853027
sg14
F5.0051159858703613
sg29
g33
sg1280
S'stimuli/Faces/F07.pict.jpg'
p1344
sg20
S"['0.808161020279']"
p1345
sg36
g37
sg38
g39
sS'TrialsInRun.thisN'
p1346
I3
sg34
g35
sg1284
g1285
sg17
S'2'
sg1286
g30
(g69
S'\x00\x00\x00\x00\x00\x00\x00\x00'
tRp1347
sg28
S'1'
sg25
VA
sS'TrialsInRun.thisTrialN'
p1348
I3
sS'TrialsInRun.thisIndex'
p1349
g30
(g79
S'\x03\x00\x00\x00'
tRp1350
sg1291
S'stimuli/Houses/H19.pict.jpg'
p1351
sg19
S"['2']"
p1352
sg41
g42
sg43
g44
sg45
g46
sg1294
g30
(g32
S'333333\x01@'
tRp1353
sg1296
S'stimuli/Faces/F09.pict.jpg'
p1354
sg16
F30.163978099822998
sg24
g11
sg1298
g1337
sg1300
g30
(g69
S'\x01\x00\x00\x00\x00\x00\x00\x00'
tRp1355
sg1302
S'stimuli/Houses/H19.pict.jpg'
p1356
sg1304
g30
(g69
S'\x01\x00\x00\x00\x00\x00\x00\x00'
tRp1357
sg40
I4
sa(dp1358
g1277
g30
(g69
S'\x00\x00\x00\x00\x00\x00\x00\x00'
tRp1359
sg15
F34.542311906814575
sS'TrialsInRun.thisRepN'
p1360
I0
sg26
g27
sg18
F0.99227190017700195
sg14
F5.0051159858703613
sg29
g33
sg1280
S'stimuli/Faces/N09.pict.jpg'
p1361
sg20
S"['0.992200136185']"
p1362
sg36
g37
sg38
g39
sS'TrialsInRun.thisN'
p1363
I4
sg34
g35
sg1284
g1285
sg17
S'2'
sg1286
g30
(g69
S'\x00\x00\x00\x00\x00\x00\x00\x00'
tRp1364
sg28
S'1'
sg25
VA
sS'TrialsInRun.thisTrialN'
p1365
I4
sS'TrialsInRun.thisIndex'
p1366
g30
(g79
S'\x04\x00\x00\x00'
tRp1367
sg1291
S'stimuli/Houses/H01.pict.jpg'
p1368
sg19
S"['2']"
p1369
sg41
g42
sg43
g44
sg45
g46
sg1294
g30
(g32
S'\xa4p=\n\xd7\xa3\x12@'
tRp1370
sg1296
S'stimuli/Faces/N04.pict.jpg'
p1371
sg16
F35.537501096725464
sg24
g11
sg1298
g1337
sg1300
g30
(g69
S'\x00\x00\x00\x00\x00\x00\x00\x00'
tRp1372
sg1302
S'stimuli/Houses/H16.pict.jpg'
p1373
sg1304
g30
(g69
S'\x01\x00\x00\x00\x00\x00\x00\x00'
tRp1374
sg40
I4
sa(dp1375
g1277
g30
(g69
S'\x01\x00\x00\x00\x00\x00\x00\x00'
tRp1376
sg15
F42.411204099655151
sS'TrialsInRun.thisRepN'
p1377
I0
sg26
g27
sg18
F1.1676468849182129
sg14
F5.0051159858703613
sg29
g33
sg1280
S'stimuli/Houses/H17.pict.jpg'
p1378
sg20
S"['1.16755890846']"
p1379
sg36
g37
sg38
g39
sS'TrialsInRun.thisN'
p1380
I5
sg34
g35
sg1284
g1285
sg17
S'1'
sg1286
g30
(g69
S'\x01\x00\x00\x00\x00\x00\x00\x00'
tRp1381
sg28
S'1'
sg25
VA
sS'TrialsInRun.thisTrialN'
p1382
I5
sS'TrialsInRun.thisIndex'
p1383
g30
(g79
S'\x05\x00\x00\x00'
tRp1384
sg1291
S'stimuli/Faces/F01.pict.jpg'
p1385
sg19
S"['1']"
p1386
sg41
g42
sg43
g44
sg45
g46
sg1294
g30
(g32
S'\\\x8f\xc2\xf5(\\#@'
tRp1387
sg1296
S'stimuli/Houses/H17.pict.jpg'
p1388
sg16
F43.412832021713257
sg24
g11
sg1298
g1299
sg1300
g30
(g69
S'\x00\x00\x00\x00\x00\x00\x00\x00'
tRp1389
sg1302
S'stimuli/Faces/F02.pict.jpg'
p1390
sg1304
g30
(g69
S'\x00\x00\x00\x00\x00\x00\x00\x00'
tRp1391
sg40
I4
sa(dp1392
g1277
g30
(g69
S'\x00\x00\x00\x00\x00\x00\x00\x00'
tRp1393
sg15
F55.306548118591309
sS'TrialsInRun.thisRepN'
p1394
I0
sg26
g27
sg18
F1.168159008026123
sg14
F5.0051159858703613
sg29
g33
sg1280
S'stimuli/Houses/H02.pict.jpg'
p1395
sg20
S"['1.16812896729']"
p1396
sg36
g37
sg38
g39
sS'TrialsInRun.thisN'
p1397
I6
sg34
g35
sg1284
g1285
sg17
S'1'
sg1286
g30
(g69
S'\x01\x00\x00\x00\x00\x00\x00\x00'
tRp1398
sg28
S'1'
sg25
VA
sS'TrialsInRun.thisTrialN'
p1399
I6
sS'TrialsInRun.thisIndex'
p1400
g30
(g79
S'\x06\x00\x00\x00'
tRp1401
sg1291
S'stimuli/Faces/N05.pict.jpg'
p1402
sg19
S"['1']"
p1403
sg41
g42
sg43
g44
sg45
g46
sg1294
g30
(g32
S'\xe1z\x14\xaeGa(@'
tRp1404
sg1296
S'stimuli/Houses/H02.pict.jpg'
p1405
sg16
F56.306646108627319
sg24
g11
sg1298
g1299
sg1300
g30
(g69
S'\x00\x00\x00\x00\x00\x00\x00\x00'
tRp1406
sg1302
S'stimuli/Faces/N07.pict.jpg'
p1407
sg1304
g30
(g69
S'\x00\x00\x00\x00\x00\x00\x00\x00'
tRp1408
sg40
I4
sa(dp1409
g1277
g30
(g69
S'\x01\x00\x00\x00\x00\x00\x00\x00'
tRp1410
sg15
F70.699408054351807
sS'TrialsInRun.thisRepN'
p1411
I0
sg26
g27
sg18
F0.95707106590270996
sg14
F5.0051159858703613
sg29
g33
sg1280
S'stimuli/Faces/F10.pict.jpg'
p1412
sg20
S"['0.956971168518']"
p1413
sg36
g37
sg38
g39
sS'TrialsInRun.thisN'
p1414
I7
sg34
g35
sg1284
g1285
sg17
S'1'
sg1286
g30
(g69
S'\x01\x00\x00\x00\x00\x00\x00\x00'
tRp1415
sg28
S'1'
sg25
VA
sS'TrialsInRun.thisTrialN'
p1416
I7
sS'TrialsInRun.thisIndex'
p1417
g30
(g79
S'\x07\x00\x00\x00'
tRp1418
sg1291
S'stimuli/Houses/H06.pict.jpg'
p1419
sg19
S"['1']"
p1420
sg41
g42
sg43
g44
sg45
g46
sg1294
g30
(g32
S'\xa4p=\n\xd7\xa3\x12@'
tRp1421
sg1296
S'stimuli/Faces/F10.pict.jpg'
p1422
sg16
F71.709980010986328
sg24
g11
sg1298
g1299
sg1300
g30
(g69
S'\x00\x00\x00\x00\x00\x00\x00\x00'
tRp1423
sg1302
S'stimuli/Houses/H14.pict.jpg'
p1424
sg1304
g30
(g69
S'\x01\x00\x00\x00\x00\x00\x00\x00'
tRp1425
sg40
I4
sa(dp1426
g1277
g30
(g69
S'\x01\x00\x00\x00\x00\x00\x00\x00'
tRp1427
sg15
F78.575524091720581
sS'TrialsInRun.thisRepN'
p1428
I0
sg26
g27
sg14
F5.0051159858703613
sg29
g33
sg1280
S'stimuli/Houses/H11.pict.jpg'
p1429
sg20
S'[]'
p1430
sg36
g37
sg38
g39
sS'TrialsInRun.thisN'
p1431
I8
sg34
g35
sg1284
g1285
sg17
Nsg1286
g30
(g69
S'\x00\x00\x00\x00\x00\x00\x00\x00'
tRp1432
sg28
S'1'
sg25
VA
sS'TrialsInRun.thisTrialN'
p1433
I8
sS'TrialsInRun.thisIndex'
p1434
g30
(g79
S'\x08\x00\x00\x00'
tRp1435
sg1291
S'stimuli/Faces/F08.pict.jpg'
p1436
sg19
S'[]'
p1437
sg41
g42
sg43
g44
sg45
g46
sg1294
g30
(g32
S'333333\x01@'
tRp1438
sg1296
S'stimuli/Houses/H05.pict.jpg'
p1439
sg16
F79.57975697517395
sg24
g11
sg1298
g1337
sg1300
g30
(g69
S'\x01\x00\x00\x00\x00\x00\x00\x00'
tRp1440
sg1302
S'stimuli/Faces/F08.pict.jpg'
p1441
sg1304
g30
(g69
S'\x00\x00\x00\x00\x00\x00\x00\x00'
tRp1442
sg40
I4
sa(dp1443
g1277
g30
(g69
S'\x01\x00\x00\x00\x00\x00\x00\x00'
tRp1444
sg15
F83.948410987854004
sS'TrialsInRun.thisRepN'
p1445
I0
sg26
g27
sg18
F0.93478894233703613
sg14
F5.0051159858703613
sg29
g33
sg1280
S'stimuli/Houses/H07.pict.jpg'
p1446
sg20
S"['0.934740066528']"
p1447
sg36
g37
sg38
g39
sS'TrialsInRun.thisN'
p1448
I9
sg34
g35
sg1284
g1285
sg17
S'1'
sg1286
g30
(g69
S'\x01\x00\x00\x00\x00\x00\x00\x00'
tRp1449
sg28
S'1'
sg25
VA
sS'TrialsInRun.thisTrialN'
p1450
I9
sS'TrialsInRun.thisIndex'
p1451
g30
(g79
S'\t\x00\x00\x00'
tRp1452
sg1291
S'stimuli/Faces/F04.pict.jpg'
p1453
sg19
S"['1']"
p1454
sg41
g42
sg43
g44
sg45
g46
sg1294
g30
(g32
S'\xe1z\x14\xaeGa(@'
tRp1455
sg1296
S'stimuli/Houses/H07.pict.jpg'
p1456
sg16
F84.951723098754883
sg24
g11
sg1298
g1299
sg1300
g30
(g69
S'\x00\x00\x00\x00\x00\x00\x00\x00'
tRp1457
sg1302
S'stimuli/Faces/F06.pict.jpg'
p1458
sg1304
g30
(g69
S'\x00\x00\x00\x00\x00\x00\x00\x00'
tRp1459
sg40
I4
sa(dp1460
g1277
g30
(g69
S'\x01\x00\x00\x00\x00\x00\x00\x00'
tRp1461
sg15
F99.344866991043091
sS'TrialsInRun.thisRepN'
p1462
I0
sg26
g27
sg14
F5.0051159858703613
sg29
g33
sg1280
S'stimuli/Faces/F03.pict.jpg'
p1463
sg20
S"['2.18244814873']"
p1464
sg36
g37
sg38
g39
sS'TrialsInRun.thisN'
p1465
I10
sg34
g35
sg1284
g1285
sg17
Nsg1286
g30
(g69
S'\x01\x00\x00\x00\x00\x00\x00\x00'
tRp1466
sg28
S'1'
sg25
VA
sS'TrialsInRun.thisTrialN'
p1467
I10
sS'TrialsInRun.thisIndex'
p1468
g30
(g79
S'\n\x00\x00\x00'
tRp1469
sg1291
S'stimuli/Houses/H09.pict.jpg'
p1470
sg19
S"['1']"
p1471
sg41
g42
sg43
g44
sg45
g46
sg1294
g30
(g32
S'\xa4p=\n\xd7\xa3\x12@'
tRp1472
sg1296
S'stimuli/Faces/F03.pict.jpg'
p1473
sg16
F100.35504698753357
sg24
g11
sg1298
g1299
sg1300
g30
(g69
S'\x01\x00\x00\x00\x00\x00\x00\x00'
tRp1474
sg1302
S'stimuli/Houses/H09.pict.jpg'
p1475
sg1304
g30
(g69
S'\x01\x00\x00\x00\x00\x00\x00\x00'
tRp1476
sg40
I4
sa(dp1477
g1277
g30
(g69
S'\x00\x00\x00\x00\x00\x00\x00\x00'
tRp1478
sg15
F107.22045207023621
sS'TrialsInRun.thisRepN'
p1479
I0
sg26
g27
sg18
F1.8165199756622314
sg14
F5.0051159858703613
sg29
g33
sg1280
S'stimuli/Houses/H15.pict.jpg'
p1480
sg20
S"['1.816437006']"
p1481
sg36
g37
sg38
g39
sS'TrialsInRun.thisN'
p1482
I11
sg34
g35
sg1284
g1285
sg17
S'1'
sg1286
g30
(g69
S'\x01\x00\x00\x00\x00\x00\x00\x00'
tRp1483
sg28
S'1'
sg25
VA
sS'TrialsInRun.thisTrialN'
p1484
I11
sS'TrialsInRun.thisIndex'
p1485
g30
(g79
S'\x0b\x00\x00\x00'
tRp1486
sg1291
S'stimuli/Faces/N01.pict.jpg'
p1487
sg19
S"['1']"
p1488
sg41
g42
sg43
g44
sg45
g46
sg1294
g30
(g32
S'\\\x8f\xc2\xf5(\\#@'
tRp1489
sg1296
S'stimuli/Houses/H15.pict.jpg'
p1490
sg16
F108.23347091674805
sg24
g11
sg1298
g1299
sg1300
g30
(g69
S'\x01\x00\x00\x00\x00\x00\x00\x00'
tRp1491
sg1302
S'stimuli/Faces/N01.pict.jpg'
p1492
sg1304
g30
(g69
S'\x00\x00\x00\x00\x00\x00\x00\x00'
tRp1493
sg40
I4
sa(dp1494
g1277
g30
(g69
S'\x01\x00\x00\x00\x00\x00\x00\x00'
tRp1495
sg15
F120.11888003349304
sS'TrialsInRun.thisRepN'
p1496
I0
sg26
g27
sg14
F5.0051159858703613
sg29
g33
sg1280
g1344
sg20
S'[]'
p1497
sg36
g37
sg38
g39
sS'TrialsInRun.thisN'
p1498
I12
sg34
g35
sg1284
g1285
sg17
Nsg1286
g30
(g69
S'\x00\x00\x00\x00\x00\x00\x00\x00'
tRp1499
sg28
S'1'
sg25
VA
sS'TrialsInRun.thisTrialN'
p1500
I12
sS'TrialsInRun.thisIndex'
p1501
g30
(g79
S'\x0c\x00\x00\x00'
tRp1502
sg1291
S'stimuli/Houses/H20.pict.jpg'
p1503
sg19
S'[]'
p1504
sg41
g42
sg43
g44
sg45
g46
sg1294
g30
(g32
S'333333\x01@'
tRp1505
sg1296
S'stimuli/Faces/F05.pict.jpg'
p1506
sg16
F121.12268805503845
sg24
g11
sg1298
g1337
sg1300
g30
(g69
S'\x01\x00\x00\x00\x00\x00\x00\x00'
tRp1507
sg1302
S'stimuli/Houses/H20.pict.jpg'
p1508
sg1304
g30
(g69
S'\x01\x00\x00\x00\x00\x00\x00\x00'
tRp1509
sg40
I4
sa(dp1510
g1277
g30
(g69
S'\x00\x00\x00\x00\x00\x00\x00\x00'
tRp1511
sg15
F125.47829294204712
sS'TrialsInRun.thisRepN'
p1512
I0
sg26
g27
sg18
F1.4050459861755371
sg14
F5.0051159858703613
sg29
g33
sg1280
S'stimuli/Houses/H04.pict.jpg'
p1513
sg20
S"['1.40499401093']"
p1514
sg36
g37
sg38
g39
sS'TrialsInRun.thisN'
p1515
I13
sg34
g35
sg1284
g1285
sg17
S'2'
sg1286
g30
(g69
S'\x00\x00\x00\x00\x00\x00\x00\x00'
tRp1516
sg28
S'1'
sg25
VA
sS'TrialsInRun.thisTrialN'
p1517
I13
sS'TrialsInRun.thisIndex'
p1518
g30
(g79
S'\r\x00\x00\x00'
tRp1519
sg1291
S'stimuli/Faces/N03.pict.jpg'
p1520
sg19
S"['2']"
p1521
sg41
g42
sg43
g44
sg45
g46
sg1294
g30
(g32
S'\xaeG\xe1z\x14\xae\x1c@'
tRp1522
sg1296
S'stimuli/Houses/H12.pict.jpg'
p1523
sg16
F126.47693800926208
sg24
g11
sg1298
g1337
sg1300
g30
(g69
S'\x01\x00\x00\x00\x00\x00\x00\x00'
tRp1524
sg1302
S'stimuli/Faces/N03.pict.jpg'
p1525
sg1304
g30
(g69
S'\x00\x00\x00\x00\x00\x00\x00\x00'
tRp1526
sg40
I4
sa(dp1527
g1277
g30
(g69
S'\x00\x00\x00\x00\x00\x00\x00\x00'
tRp1528
sg15
F135.86348795890808
sS'TrialsInRun.thisRepN'
p1529
I0
sg26
g27
sg18
F1.2678759098052979
sg14
F5.0051159858703613
sg29
g33
sg1280
S'stimuli/Houses/H03.pict.jpg'
p1530
sg20
S"['1.26779389381']"
p1531
sg36
g37
sg38
g39
sS'TrialsInRun.thisN'
p1532
I14
sg34
g35
sg1284
g1285
sg17
S'2'
sg1286
g30
(g69
S'\x00\x00\x00\x00\x00\x00\x00\x00'
tRp1533
sg28
S'1'
sg25
VA
sS'TrialsInRun.thisTrialN'
p1534
I14
sS'TrialsInRun.thisIndex'
p1535
g30
(g79
S'\x0e\x00\x00\x00'
tRp1536
sg1291
S'stimuli/Faces/N06.pict.jpg'
p1537
sg19
S"['2']"
p1538
sg41
g42
sg43
g44
sg45
g46
sg1294
g30
(g32
S'333333\x01@'
tRp1539
sg1296
S'stimuli/Houses/H10.pict.jpg'
p1540
sg16
F136.87602591514587
sg24
g11
sg1298
g1337
sg1300
g30
(g69
S'\x00\x00\x00\x00\x00\x00\x00\x00'
tRp1541
sg1302
g1339
sg1304
g30
(g69
S'\x00\x00\x00\x00\x00\x00\x00\x00'
tRp1542
sg40
I4
sa(dp1543
g1277
g30
(g69
S'\x01\x00\x00\x00\x00\x00\x00\x00'
tRp1544
sg15
F141.22360992431641
sS'TrialsInRun.thisRepN'
p1545
I0
sg26
g27
sg14
F5.0051159858703613
sg29
g33
sg1280
g1412
sg20
S'[]'
p1546
sg36
g37
sg38
g39
sS'TrialsInRun.thisN'
p1547
I15
sg34
g35
sg1284
g1285
sg17
Nsg1286
g30
(g69
S'\x01\x00\x00\x00\x00\x00\x00\x00'
tRp1548
sg28
S'1'
sg25
VA
sS'TrialsInRun.thisTrialN'
p1549
I15
sS'TrialsInRun.thisIndex'
p1550
g30
(g79
S'\x0f\x00\x00\x00'
tRp1551
sg1291
g1292
sg19
S'[]'
p1552
sg41
g42
sg43
g44
sg45
g46
sg1294
g30
(g32
S'333333\x01@'
tRp1553
sg1296
g1422
sg16
F142.2261209487915
sg24
g11
sg1298
g1299
sg1300
g30
(g69
S'\x00\x00\x00\x00\x00\x00\x00\x00'
tRp1554
sg1302
S'stimuli/Houses/H13.pict.jpg'
p1555
sg1304
g30
(g69
S'\x01\x00\x00\x00\x00\x00\x00\x00'
tRp1556
sg40
I4
sa(dp1557
g1277
g30
(g69
S'\x00\x00\x00\x00\x00\x00\x00\x00'
tRp1558
sg15
F146.57717895507812
sS'TrialsInRun.thisRepN'
p1559
I0
sg26
g27
sg14
F5.0051159858703613
sg29
g33
sg1280
S'stimuli/Faces/N10.pict.jpg'
p1560
sg20
S"['3.55909705162']"
p1561
sg36
g37
sg38
g39
sS'TrialsInRun.thisN'
p1562
I16
sg34
g35
sg1284
g1285
sg17
Nsg1286
g30
(g69
S'\x01\x00\x00\x00\x00\x00\x00\x00'
tRp1563
sg28
S'1'
sg25
VA
sS'TrialsInRun.thisTrialN'
p1564
I16
sS'TrialsInRun.thisIndex'
p1565
g30
(g79
S'\x10\x00\x00\x00'
tRp1566
sg1291
S'stimuli/Houses/H17.pict.jpg'
p1567
sg19
S"['2']"
p1568
sg41
g42
sg43
g44
sg45
g46
sg1294
g30
(g32
S'\\\x8f\xc2\xf5(\\#@'
tRp1569
sg1296
S'stimuli/Faces/N10.pict.jpg'
p1570
sg16
F147.5803689956665
sg24
g11
sg1298
g1299
sg1300
g30
(g69
S'\x01\x00\x00\x00\x00\x00\x00\x00'
tRp1571
sg1302
S'stimuli/Houses/H17.pict.jpg'
p1572
sg1304
g30
(g69
S'\x01\x00\x00\x00\x00\x00\x00\x00'
tRp1573
sg40
I4
sa(dp1574
g1277
g30
(g69
S'\x00\x00\x00\x00\x00\x00\x00\x00'
tRp1575
sg15
F159.47309494018555
sS'TrialsInRun.thisRepN'
p1576
I0
sg26
g27
sg14
F5.0051159858703613
sg29
g33
sg1280
g1309
sg20
S'[]'
p1577
sg36
g37
sg38
g39
sS'TrialsInRun.thisN'
p1578
I17
sg34
g35
sg1284
g1285
sg17
Nsg1286
g30
(g69
S'\x00\x00\x00\x00\x00\x00\x00\x00'
tRp1579
sg28
S'1'
sg25
VA
sS'TrialsInRun.thisTrialN'
p1580
I17
sS'TrialsInRun.thisIndex'
p1581
g30
(g79
S'\x11\x00\x00\x00'
tRp1582
sg1291
S'stimuli/Houses/H03.pict.jpg'
p1583
sg19
S'[]'
p1584
sg41
g42
sg43
g44
sg45
g46
sg1294
g30
(g32
S'\xa4p=\n\xd7\xa3\x12@'
tRp1585
sg1296
S'stimuli/Faces/N07.pict.jpg'
p1586
sg16
F160.47652196884155
sg24
g11
sg1298
g1337
sg1300
g30
(g69
S'\x01\x00\x00\x00\x00\x00\x00\x00'
tRp1587
sg1302
g1321
sg1304
g30
(g69
S'\x01\x00\x00\x00\x00\x00\x00\x00'
tRp1588
sg40
I4
sa(dp1589
g1277
g30
(g69
S'\x01\x00\x00\x00\x00\x00\x00\x00'
tRp1590
sg15
F167.33676290512085
sS'TrialsInRun.thisRepN'
p1591
I0
sg26
g27
sg18
F1.1487469673156738
sg14
F5.0051159858703613
sg29
g33
sg1280
S'stimuli/Faces/F05.pict.jpg'
p1592
sg20
S"['1.14866781235']"
p1593
sg36
g37
sg38
g39
sS'TrialsInRun.thisN'
p1594
I18
sg34
g35
sg1284
g1285
sg17
S'2'
sg1286
g30
(g69
S'\x00\x00\x00\x00\x00\x00\x00\x00'
tRp1595
sg28
S'1'
sg25
VA
sS'TrialsInRun.thisTrialN'
p1596
I18
sS'TrialsInRun.thisIndex'
p1597
g30
(g79
S'\x12\x00\x00\x00'
tRp1598
sg1291
S'stimuli/Houses/H07.pict.jpg'
p1599
sg19
S"['2']"
p1600
sg41
g42
sg43
g44
sg45
g46
sg1294
g30
(g32
S'\xaeG\xe1z\x14\xae\x1c@'
tRp1601
sg1296
S'stimuli/Faces/F02.pict.jpg'
p1602
sg16
F168.33743095397949
sg24
g11
sg1298
g1337
sg1300
g30
(g69
S'\x00\x00\x00\x00\x00\x00\x00\x00'
tRp1603
sg1302
S'stimuli/Houses/H02.pict.jpg'
p1604
sg1304
g30
(g69
S'\x01\x00\x00\x00\x00\x00\x00\x00'
tRp1605
sg40
I4
sa(dp1606
g1277
g30
(g69
S'\x00\x00\x00\x00\x00\x00\x00\x00'
tRp1607
sg15
F177.72150492668152
sS'TrialsInRun.thisRepN'
p1608
I0
sg26
g27
sg18
F1.3591768741607666
sg14
F5.0051159858703613
sg29
g33
sg1280
S'stimuli/Houses/H01.pict.jpg'
p1609
sg20
S"['1.35916090012']"
p1610
sg36
g37
sg38
g39
sS'TrialsInRun.thisN'
p1611
I19
sg34
g35
sg1284
g1285
sg17
S'2'
sg1286
g30
(g69
S'\x01\x00\x00\x00\x00\x00\x00\x00'
tRp1612
sg28
S'1'
sg25
VA
sS'TrialsInRun.thisTrialN'
p1613
I19
sS'TrialsInRun.thisIndex'
p1614
g30
(g79
S'\x13\x00\x00\x00'
tRp1615
sg1291
S'stimuli/Faces/N08.pict.jpg'
p1616
sg19
S"['2']"
p1617
sg41
g42
sg43
g44
sg45
g46
sg1294
g30
(g32
S'\xa4p=\n\xd7\xa3\x12@'
tRp1618
sg1296
S'stimuli/Houses/H01.pict.jpg'
p1619
sg16
F178.72783899307251
sg24
g11
sg1298
g1299
sg1300
g30
(g69
S'\x00\x00\x00\x00\x00\x00\x00\x00'
tRp1620
sg1302
S'stimuli/Faces/N06.pict.jpg'
p1621
sg1304
g30
(g69
S'\x00\x00\x00\x00\x00\x00\x00\x00'
tRp1622
sg40
I4
sa(dp1623
g1277
g30
(g69
S'\x00\x00\x00\x00\x00\x00\x00\x00'
tRp1624
sg15
F185.5962860584259
sS'TrialsInRun.thisRepN'
p1625
I0
sg26
g27
sg18
F1.3612151145935059
sg14
F5.0051159858703613
sg29
g33
sg1280
g1560
sg20
S"['1.36121106148']"
p1626
sg36
g37
sg38
g39
sS'TrialsInRun.thisN'
p1627
I20
sg34
g35
sg1284
g1285
sg17
S'2'
sg1286
g30
(g69
S'\x01\x00\x00\x00\x00\x00\x00\x00'
tRp1628
sg28
S'1'
sg25
VA
sS'TrialsInRun.thisTrialN'
p1629
I20
sS'TrialsInRun.thisIndex'
p1630
g30
(g79
S'\x14\x00\x00\x00'
tRp1631
sg1291
S'stimuli/Houses/H05.pict.jpg'
p1632
sg19
S"['2']"
p1633
sg41
g42
sg43
g44
sg45
g46
sg1294
g30
(g32
S'333333\x01@'
tRp1634
sg1296
g1570
sg16
F186.60226702690125
sg24
g11
sg1298
g1299
sg1300
g30
(g69
S'\x00\x00\x00\x00\x00\x00\x00\x00'
tRp1635
sg1302
S'stimuli/Houses/H11.pict.jpg'
p1636
sg1304
g30
(g69
S'\x01\x00\x00\x00\x00\x00\x00\x00'
tRp1637
sg40
I4
sa(dp1638
g1277
g30
(g69
S'\x01\x00\x00\x00\x00\x00\x00\x00'
tRp1639
sg15
F190.95427703857422
sS'TrialsInRun.thisRepN'
p1640
I0
sg26
g27
sg14
F5.0051159858703613
sg29
g33
sg1280
g1513
sg20
S"['3.3644220829']"
p1641
sg36
g37
sg38
g39
sS'TrialsInRun.thisN'
p1642
I21
sg34
g35
sg1284
g1285
sg17
Nsg1286
g30
(g69
S'\x01\x00\x00\x00\x00\x00\x00\x00'
tRp1643
sg28
S'1'
sg25
VA
sS'TrialsInRun.thisTrialN'
p1644
I21
sS'TrialsInRun.thisIndex'
p1645
g30
(g79
S'\x15\x00\x00\x00'
tRp1646
sg1291
g1436
sg19
S"['2']"
p1647
sg41
g42
sg43
g44
sg45
g46
sg1294
g30
(g32
S'\xe1z\x14\xaeGa(@'
tRp1648
sg1296
S'stimuli/Houses/H04.pict.jpg'
p1649
sg16
F191.96295094490051
sg24
g11
sg1298
g1299
sg1300
g30
(g69
S'\x01\x00\x00\x00\x00\x00\x00\x00'
tRp1650
sg1302
g1441
sg1304
g30
(g69
S'\x00\x00\x00\x00\x00\x00\x00\x00'
tRp1651
sg40
I4
sa(dp1652
g1277
g30
(g69
S'\x00\x00\x00\x00\x00\x00\x00\x00'
tRp1653
sg15
F206.34768104553223
sS'TrialsInRun.thisRepN'
p1654
I0
sg26
g27
sg18
F0.87040495872497559
sg14
F5.0051159858703613
sg29
g33
sg1280
S'stimuli/Faces/N04.pict.jpg'
p1655
sg20
S"['0.8703520298']"
p1656
sg36
g37
sg38
g39
sS'TrialsInRun.thisN'
p1657
I22
sg34
g35
sg1284
g1285
sg17
S'2'
sg1286
g30
(g69
S'\x00\x00\x00\x00\x00\x00\x00\x00'
tRp1658
sg28
S'1'
sg25
VA
sS'TrialsInRun.thisTrialN'
p1659
I22
sS'TrialsInRun.thisIndex'
p1660
g30
(g79
S'\x16\x00\x00\x00'
tRp1661
sg1291
g1419
sg19
S"['2']"
p1662
sg41
g42
sg43
g44
sg45
g46
sg1294
g30
(g32
S'333333\x01@'
tRp1663
sg1296
S'stimuli/Faces/N09.pict.jpg'
p1664
sg16
F207.35623097419739
sg24
g11
sg1298
g1337
sg1300
g30
(g69
S'\x00\x00\x00\x00\x00\x00\x00\x00'
tRp1665
sg1302
S'stimuli/Houses/H12.pict.jpg'
p1666
sg1304
g30
(g69
S'\x01\x00\x00\x00\x00\x00\x00\x00'
tRp1667
sg40
I4
sa(dp1668
g1277
g30
(g69
S'\x01\x00\x00\x00\x00\x00\x00\x00'
tRp1669
sg15
F211.70956802368164
sS'TrialsInRun.thisRepN'
p1670
I0
sg26
g27
sg18
F0.92442107200622559
sg14
F5.0051159858703613
sg29
g33
sg1280
S'stimuli/Houses/H10.pict.jpg'
p1671
sg20
S"['0.924348831177']"
p1672
sg36
g37
sg38
g39
sS'TrialsInRun.thisN'
p1673
I23
sg34
g35
sg1284
g1285
sg17
S'2'
sg1286
g30
(g69
S'\x00\x00\x00\x00\x00\x00\x00\x00'
tRp1674
sg28
S'1'
sg25
VA
sS'TrialsInRun.thisTrialN'
p1675
I23
sS'TrialsInRun.thisIndex'
p1676
g30
(g79
S'\x17\x00\x00\x00'
tRp1677
sg1291
g1453
sg19
S"['2']"
p1678
sg41
g42
sg43
g44
sg45
g46
sg1294
g30
(g32
S'333333\x01@'
tRp1679
sg1296
S'stimuli/Houses/H13.pict.jpg'
p1680
sg16
F212.7114839553833
sg24
g11
sg1298
g1337
sg1300
g30
(g69
S'\x00\x00\x00\x00\x00\x00\x00\x00'
tRp1681
sg1302
g1458
sg1304
g30
(g69
S'\x00\x00\x00\x00\x00\x00\x00\x00'
tRp1682
sg40
I4
sasS'loops'
p1683
(lp1684
g1
(cpsychopy.data
TrialHandler
p1685
g3
NtRp1686
(dp1687
S'origin'
p1688
NsS'thisTrial'
p1689
(lp1690
sS'_exp'
p1691
L2890398636L
sg10
S'TrialsInRun'
p1692
sg6
S'Conflict/conflict.py'
p1693
sS'thisRepN'
p1694
I1
sg21
I01
sg22
g23
sS'data'
p1695
g1
(cpsychopy.data
DataHandler
p1696
c__builtin__
dict
p1697
(dp1698
g15
cnumpy.ma.core
_mareconstruct
p1699
(cnumpy.ma.core
MaskedArray
p1700
cnumpy
ndarray
p1701
(I0
tp1702
S'b'
tRp1703
(I1
(I24
I1
tg31
(S'f4'
I0
I1
tRp1704
(I3
S'<'
NNNI-1
I-1
I0
tbI00
S"\xb82\x03Au\xf3XA\x07\x9e\xd3A2N\tB_\xcb(B\x98<>B\x9b\xadSB\xc8\xa7\x88B\xefh\x9dB\xba&\xa8BM\xeb\xbcB\xc3\xa8\xccB\xa6]\xd7B?'\xf1B\xea\xfa\x07C\xa1Y\rC\x9d\xb4\x12CZ\x9c\x1fCH\x04/Cte9C.BAC\xa4$IC\xde\x83NC\xbe\xdeSC"
S'\x00\x00\x00\x00\x00\x00\x00\x00\x00\x00\x00\x00\x00\x00\x00\x00\x00\x00\x00\x00\x00\x00\x00\x00'
NtbsS'ran'
p1705
g1699
(g1700
g1701
g1702
S'b'
tRp1706
(I1
(I24
I1
tg1704
I00
S'\x00\x00\x80?\x00\x00\x80?\x00\x00\x80?\x00\x00\x80?\x00\x00\x80?\x00\x00\x80?\x00\x00\x80?\x00\x00\x80?\x00\x00\x80?\x00\x00\x80?\x00\x00\x80?\x00\x00\x80?\x00\x00\x80?\x00\x00\x80?\x00\x00\x80?\x00\x00\x80?\x00\x00\x80?\x00\x00\x80?\x00\x00\x80?\x00\x00\x80?\x00\x00\x80?\x00\x00\x80?\x00\x00\x80?\x00\x00\x80?'
S'\x00\x00\x00\x00\x00\x00\x00\x00\x00\x00\x00\x00\x00\x00\x00\x00\x00\x00\x00\x00\x00\x00\x00\x00'
Ntbsg18
g1699
(g1700
g1701
g1702
S'b'
tRp1707
(I1
(I24
I1
tg1704
I00
S'\xa8 S?\xac\xb3I?\x94\xf6\xb6?\xda`\xb3?(\xa1\xc0?2^\xb9?\xc4:\xb5?(\x9d\x84?\x98\xd7\t@\x00\x00\x00\x00\xf6)\xad?\xfeX\xc0?\x0c\x1fi?\x98+\x97?\x00\x00\x00\x00T\xc7\x08@\x00\x00\x00\x00\x00\x00\x00\x00\xd8\xb8\xc4?|\xcd~?\xfcu\x95?HQ\x83?\xa6\x9a\x95?\xa8&e?'
S'\x00\x00\x00\x00\x00\x00\x00\x00\x00\x01\x00\x00\x00\x00\x01\x00\x01\x01\x00\x00\x00\x00\x00\x00'
Ntbsg14
g1699
(g1700
g1701
g1702
S'b'
tRp1708
(I1
(I24
I1
tg1704
I00
S'g)\xa0@g)\xa0@g)\xa0@g)\xa0@g)\xa0@g)\xa0@g)\xa0@g)\xa0@g)\xa0@g)\xa0@g)\xa0@g)\xa0@g)\xa0@g)\xa0@g)\xa0@g)\xa0@g)\xa0@g)\xa0@g)\xa0@g)\xa0@g)\xa0@g)\xa0@g)\xa0@g)\xa0@'
S'\x00\x00\x00\x00\x00\x00\x00\x00\x00\x00\x00\x00\x00\x00\x00\x00\x00\x00\x00\x00\x00\x00\x00\x00'
Ntbsg20
cnumpy.core.multiarray
_reconstruct
p1709
(g1701
(I0
tS'b'
tRp1710
(I1
(I24
I1
tg31
(S'O4'
I0
I1
tRp1711
(I3
S'|'
NNNI-1
I-1
I63
tbI00
(lp1712
g73
ag93
ag111
ag128
ag145
ag162
ag179
ag196
ag213
ag230
ag247
ag264
ag281
ag298
ag315
ag329
ag345
ag361
ag376
ag392
ag408
ag424
ag440
ag456
atbsg17
g1709
(g1701
(I0
tS'b'
tRp1713
(I1
(I24
I1
tg1711
I00
(lp1714
S'2'
aS'1'
aS'2'
aS'2'
aS'2'
aS'1'
aS'1'
aS'1'
aS'2'
aNaS'2'
aS'2'
aS'2'
aS'1'
aNaS'2'
aNaNaS'2'
aS'2'
aS'1'
aS'1'
aS'2'
aS'2'
atbsg16
g1699
(g1700
g1701
g1702
S'b'
tRp1715
(I1
(I24
I1
tg1704
I00
S'dH\x13Az\xf7hA\xc8\xb1\xdbA\xfbR\rBr\xd2,B\x8aCBBR\xacWBH\xaa\x8aB\xb2j\x9fB}+\xaaB\xdb\xea\xbeB\xe8\xa9\xceB\xca_\xd9B\xa1*\xf3Bb\xfb\x08C\x94Z\x0eC\xaa\xb6\x13C/\x9c C\x82\x060C\xc1e:CGBBC}%JC\xb0\x84OC\x0b\xe1TC'
S'\x00\x00\x00\x00\x00\x00\x00\x00\x00\x00\x00\x00\x00\x00\x00\x00\x00\x00\x00\x00\x00\x00\x00\x00'
Ntbsg19
g1709
(g1701
(I0
tS'b'
tRp1716
(I1
(I24
I1
tg1711
I00
(lp1717
g82
ag100
ag118
ag135
ag152
ag169
ag186
ag203
ag220
ag237
ag254
ag271
ag288
ag305
ag321
ag336
ag352
ag367
ag383
ag399
ag415
ag431
ag447
ag462
atbsS'order'
p1718
g1699
(g1700
g1701
g1702
S'b'
tRp1719
(I1
(I24
I1
tg1704
I00
S'\x00\x00\x00\x00\x00\x00\x80?\x00\x00\x00@\x00\x00@@\x00\x00\x80@\x00\x00\xa0@\x00\x00\xc0@\x00\x00\xe0@\x00\x00\x00A\x00\x00\x10A\x00\x00 A\x00\x000A\x00\x00@A\x00\x00PA\x00\x00`A\x00\x00pA\x00\x00\x80A\x00\x00\x88A\x00\x00\x90A\x00\x00\x98A\x00\x00\xa0A\x00\x00\xa8A\x00\x00\xb0A\x00\x00\xb8A'
S'\x00\x00\x00\x00\x00\x00\x00\x00\x00\x00\x00\x00\x00\x00\x00\x00\x00\x00\x00\x00\x00\x00\x00\x00'
NtbstRp1720
(dp1721
S'isNumeric'
p1722
(dp1723
g15
I01
sg1705
I01
sg18
I01
sg14
I01
sg20
I00
sg17
I00
sg16
I01
sg19
I00
sg1718
I01
ssS'trials'
p1724
g1686
sS'dataTypes'
p1725
(lp1726
g1705
ag1718
ag14
ag15
ag16
ag17
ag18
ag19
ag20
asS'dataShape'
p1727
(lp1728
I24
aI1
asbsS'method'
p1729
S'sequential'
p1730
sS'sequenceIndices'
p1731
g1709
(g1701
(I0
tS'b'
tRp1732
(I1
(I24
I1
tg79
I00
S'\x00\x00\x00\x00\x01\x00\x00\x00\x02\x00\x00\x00\x03\x00\x00\x00\x04\x00\x00\x00\x05\x00\x00\x00\x06\x00\x00\x00\x07\x00\x00\x00\x08\x00\x00\x00\t\x00\x00\x00\n\x00\x00\x00\x0b\x00\x00\x00\x0c\x00\x00\x00\r\x00\x00\x00\x0e\x00\x00\x00\x0f\x00\x00\x00\x10\x00\x00\x00\x11\x00\x00\x00\x12\x00\x00\x00\x13\x00\x00\x00\x14\x00\x00\x00\x15\x00\x00\x00\x16\x00\x00\x00\x17\x00\x00\x00'
tbsS'finished'
p1733
I01
sS'nReps'
p1734
I1
sS'nRemaining'
p1735
I-1
sS'trialList'
p1736
(lp1737
g1
(cpsychopy.data
TrialType
p1738
g1697
(dp1739
g55
g70
sg56
g72
sg57
g83
sg58
g84
sg59
g75
sg60
g81
sg61
g85
sg62
g76
sg63
g86
sg64
g87
sg65
g88
stRp1740
ag1
(g1738
g1697
(dp1741
g55
g90
sg56
g92
sg57
g101
sg58
g102
sg59
g75
sg60
g99
sg61
g103
sg62
g95
sg63
g104
sg64
g105
sg65
g106
stRp1742
ag1
(g1738
g1697
(dp1743
g55
g108
sg56
g110
sg57
g119
sg58
g120
sg59
g75
sg60
g117
sg61
g103
sg62
g113
sg63
g121
sg64
g122
sg65
g123
stRp1744
ag1
(g1738
g1697
(dp1745
g55
g125
sg56
g127
sg57
g136
sg58
g137
sg59
g75
sg60
g134
sg61
g85
sg62
g130
sg63
g138
sg64
g139
sg65
g140
stRp1746
ag1
(g1738
g1697
(dp1747
g55
g142
sg56
g144
sg57
g153
sg58
g154
sg59
g75
sg60
g151
sg61
g103
sg62
g147
sg63
g155
sg64
g156
sg65
g157
stRp1748
ag1
(g1738
g1697
(dp1749
g55
g159
sg56
g161
sg57
g170
sg58
g171
sg59
g75
sg60
g168
sg61
g85
sg62
g164
sg63
g172
sg64
g173
sg65
g174
stRp1750
ag1
(g1738
g1697
(dp1751
g55
g176
sg56
g178
sg57
g187
sg58
g188
sg59
g75
sg60
g185
sg61
g85
sg62
g181
sg63
g189
sg64
g190
sg65
g191
stRp1752
ag1
(g1738
g1697
(dp1753
g55
g193
sg56
g195
sg57
g204
sg58
g205
sg59
g75
sg60
g202
sg61
g85
sg62
g198
sg63
g206
sg64
g207
sg65
g208
stRp1754
ag1
(g1738
g1697
(dp1755
g55
g210
sg56
g212
sg57
g221
sg58
g222
sg59
g75
sg60
g219
sg61
g103
sg62
g215
sg63
g223
sg64
g224
sg65
g225
stRp1756
ag1
(g1738
g1697
(dp1757
g55
g227
sg56
g229
sg57
g238
sg58
g239
sg59
g75
sg60
g236
sg61
g85
sg62
g232
sg63
g240
sg64
g241
sg65
g242
stRp1758
ag1
(g1738
g1697
(dp1759
g55
g244
sg56
g246
sg57
g255
sg58
g256
sg59
g75
sg60
g253
sg61
g103
sg62
g249
sg63
g257
sg64
g258
sg65
g259
stRp1760
ag1
(g1738
g1697
(dp1761
g55
g261
sg56
g263
sg57
g272
sg58
g273
sg59
g75
sg60
g270
sg61
g103
sg62
g266
sg63
g274
sg64
g275
sg65
g276
stRp1762
ag1
(g1738
g1697
(dp1763
g55
g278
sg56
g280
sg57
g289
sg58
g290
sg59
g75
sg60
g287
sg61
g103
sg62
g283
sg63
g291
sg64
g292
sg65
g293
stRp1764
ag1
(g1738
g1697
(dp1765
g55
g295
sg56
g297
sg57
g306
sg58
g307
sg59
g75
sg60
g304
sg61
g85
sg62
g300
sg63
g308
sg64
g309
sg65
g310
stRp1766
ag1
(g1738
g1697
(dp1767
g55
g312
sg56
g314
sg57
g322
sg58
g222
sg59
g75
sg60
g304
sg61
g103
sg62
g317
sg63
g323
sg64
g324
sg65
g325
stRp1768
ag1
(g1738
g1697
(dp1769
g55
g327
sg56
g72
sg57
g337
sg58
g102
sg59
g75
sg60
g335
sg61
g85
sg62
g331
sg63
g338
sg64
g339
sg65
g340
stRp1770
ag1
(g1738
g1697
(dp1771
g55
g342
sg56
g344
sg57
g353
sg58
g354
sg59
g75
sg60
g351
sg61
g103
sg62
g347
sg63
g355
sg64
g356
sg65
g357
stRp1772
ag1
(g1738
g1697
(dp1773
g55
g359
sg56
g246
sg57
g368
sg58
g188
sg59
g75
sg60
g99
sg61
g85
sg62
g363
sg63
g369
sg64
g370
sg65
g371
stRp1774
ag1
(g1738
g1697
(dp1775
g55
g373
sg56
g375
sg57
g384
sg58
g385
sg59
g75
sg60
g382
sg61
g85
sg62
g378
sg63
g386
sg64
g292
sg65
g387
stRp1776
ag1
(g1738
g1697
(dp1777
g55
g389
sg56
g391
sg57
g400
sg58
g401
sg59
g75
sg60
g398
sg61
g103
sg62
g394
sg63
g402
sg64
g241
sg65
g403
stRp1778
ag1
(g1738
g1697
(dp1779
g55
g405
sg56
g407
sg57
g416
sg58
g417
sg59
g75
sg60
g414
sg61
g85
sg62
g410
sg63
g418
sg64
g105
sg65
g419
stRp1780
ag1
(g1738
g1697
(dp1781
g55
g421
sg56
g423
sg57
g432
sg58
g433
sg59
g75
sg60
g430
sg61
g85
sg62
g426
sg63
g434
sg64
g435
sg65
g436
stRp1782
ag1
(g1738
g1697
(dp1783
g55
g438
sg56
g229
sg57
g448
sg58
g154
sg59
g75
sg60
g446
sg61
g103
sg62
g442
sg63
g449
sg64
g450
sg65
g451
stRp1784
ag1
(g1738
g1697
(dp1785
g55
g453
sg56
g455
sg57
g463
sg58
g464
sg59
g75
sg60
g202
sg61
g103
sg62
g458
sg63
g465
sg64
g466
sg65
g467
stRp1786
asS'seed'
p1787
NsS'thisIndex'
p1788
g461
sS'thisN'
p1789
I24
sS'thisTrialN'
p1790
I0
sS'nTotal'
p1791
I24
sS'_warnUseOfNext'
p1792
I01
sbag1
(g1685
g3
NtRp1793
(dp1794
g1688
Nsg1689
(lp1795
sg1691
L2890398636L
sg10
g1692
sg6
g1693
sg1694
I1
sg21
I01
sg22
g23
sg1695
g1
(g1696
g1697
(dp1796
g15
g1699
(g1700
g1701
g1702
S'b'
tRp1797
(I1
(I24
I1
tg1704
I00
S'\x81\x81\x00A\xfamVA|\x16\x96A^\xf9\xc0A\x18\x14\x14B<\x9a3B\xe1"]B\x00\xa1|B\xed \x9dB\xb6\xe1\xb1B=\x9f\xbcB\xf0j\xdbB\x14/\xf5Bmw\x02C\xf7\xd5\x07Cm7\rC\xcb\x9c\x1cCd\xfb!C\x9b[,C&@9Ca AC\xbc\xffHC\xa4ZNC\xc3\xb7SC'
S'\x00\x00\x00\x00\x00\x00\x00\x00\x00\x00\x00\x00\x00\x00\x00\x00\x00\x00\x00\x00\x00\x00\x00\x00'
Ntbsg1705
g1699
(g1700
g1701
g1702
S'b'
tRp1798
(I1
(I24
I1
tg1704
I00
S'\x00\x00\x80?\x00\x00\x80?\x00\x00\x80?\x00\x00\x80?\x00\x00\x80?\x00\x00\x80?\x00\x00\x80?\x00\x00\x80?\x00\x00\x80?\x00\x00\x80?\x00\x00\x80?\x00\x00\x80?\x00\x00\x80?\x00\x00\x80?\x00\x00\x80?\x00\x00\x80?\x00\x00\x80?\x00\x00\x80?\x00\x00\x80?\x00\x00\x80?\x00\x00\x80?\x00\x00\x80?\x00\x00\x80?\x00\x00\x80?'
S'\x00\x00\x00\x00\x00\x00\x00\x00\x00\x00\x00\x00\x00\x00\x00\x00\x00\x00\x00\x00\x00\x00\x00\x00'
Ntbsg18
g1699
(g1700
g1701
g1702
S'b'
tRp1799
(I1
(I24
I1
tg1704
I00
S'\xd0\xc8\xcd?\x00\x00\x00\x00\x00\x00\x00\x00V\xd2\xd0?\x80/\x91?p(\xbc?\xe6\xbf\x87?\x00\x00\x00\x00\x00\x00\x00\x00\x00\x00\x00\x00\x00\x00\x00\x00\xa6B\xbe?\x9e\x7f\xdb?\xe2\xde\xaa?zU\xa5?\x06\x80\xba?\x9c\x19\xa3?x\x1e\xb2?\x94R\xde?\x00\x00\x00\x00V\xf0\xbb?pw\xba?Hm\xae?\xf6\\\xb8?'
S'\x00\x01\x01\x00\x00\x00\x00\x01\x01\x01\x01\x00\x00\x00\x00\x00\x00\x00\x00\x01\x00\x00\x00\x00'
Ntbsg14
g1699
(g1700
g1701
g1702
S'b'
tRp1800
(I1
(I24
I1
tg1704
I00
S'n)\xa0@n)\xa0@n)\xa0@n)\xa0@n)\xa0@n)\xa0@n)\xa0@n)\xa0@n)\xa0@n)\xa0@n)\xa0@n)\xa0@n)\xa0@n)\xa0@n)\xa0@n)\xa0@n)\xa0@n)\xa0@n)\xa0@n)\xa0@n)\xa0@n)\xa0@n)\xa0@n)\xa0@'
S'\x00\x00\x00\x00\x00\x00\x00\x00\x00\x00\x00\x00\x00\x00\x00\x00\x00\x00\x00\x00\x00\x00\x00\x00'
Ntbsg20
g1709
(g1701
(I0
tS'b'
tRp1801
(I1
(I24
I1
tg1711
I00
(lp1802
g474
ag502
ag519
ag536
ag554
ag571
ag588
ag605
ag622
ag639
ag656
ag673
ag690
ag707
ag724
ag739
ag755
ag770
ag785
ag801
ag817
ag832
ag848
ag862
atbsg17
g1709
(g1701
(I0
tS'b'
tRp1803
(I1
(I24
I1
tg1711
I00
(lp1804
S'2'
aNaNaS'2'
aS'1'
aS'2'
aS'1'
aNaNaNaNaS'2'
aS'2'
aS'1'
aS'2'
aS'2'
aS'2'
aS'1'
aS'1'
aNaS'2'
aS'2'
aS'2'
aS'1'
atbsg16
g1699
(g1700
g1701
g1702
S'b'
tRp1805
(I1
(I24
I1
tg1704
I00
S'G\x81\x10A\xa2\x88fA\xab\x14\x9eA\t\x0c\xc9A\xa2\x1b\x18B\x10\x9b7B^\x1faB\x93O\x80B\xbd%\x9fB\xdc\xe3\xb3Bk\xa5\xbeBxn\xddB\xb60\xf7B8x\x03Cr\xd7\x08C!7\x0eC\xc7\x9e\x1dC\xf0\xfb"Cj\\-C)C:C\xb2!BC\x8d\x01JC\xd3]OC\xca\xb7TC'
S'\x00\x00\x00\x00\x00\x00\x00\x00\x00\x00\x00\x00\x00\x00\x00\x00\x00\x00\x00\x00\x00\x00\x00\x00'
Ntbsg19
g1709
(g1701
(I0
tS'b'
tRp1806
(I1
(I24
I1
tg1711
I00
(lp1807
g485
ag509
ag526
ag543
ag561
ag578
ag595
ag612
ag629
ag646
ag663
ag680
ag697
ag714
ag730
ag745
ag762
ag777
ag792
ag808
ag824
ag839
ag854
ag869
atbsg1718
g1699
(g1700
g1701
g1702
S'b'
tRp1808
(I1
(I24
I1
tg1704
I00
S'\x00\x00\x00\x00\x00\x00\x80?\x00\x00\x00@\x00\x00@@\x00\x00\x80@\x00\x00\xa0@\x00\x00\xc0@\x00\x00\xe0@\x00\x00\x00A\x00\x00\x10A\x00\x00 A\x00\x000A\x00\x00@A\x00\x00PA\x00\x00`A\x00\x00pA\x00\x00\x80A\x00\x00\x88A\x00\x00\x90A\x00\x00\x98A\x00\x00\xa0A\x00\x00\xa8A\x00\x00\xb0A\x00\x00\xb8A'
S'\x00\x00\x00\x00\x00\x00\x00\x00\x00\x00\x00\x00\x00\x00\x00\x00\x00\x00\x00\x00\x00\x00\x00\x00'
NtbstRp1809
(dp1810
g1722
(dp1811
g15
I01
sg1705
I01
sg18
I01
sg14
I01
sg20
I00
sg17
I00
sg16
I01
sg19
I00
sg1718
I01
ssg1724
g1793
sg1725
(lp1812
g1705
ag1718
ag14
ag15
ag16
ag17
ag18
ag19
ag20
asg1727
(lp1813
I24
aI1
asbsg1729
g1730
sg1731
g1709
(g1701
(I0
tS'b'
tRp1814
(I1
(I24
I1
tg79
I00
S'\x00\x00\x00\x00\x01\x00\x00\x00\x02\x00\x00\x00\x03\x00\x00\x00\x04\x00\x00\x00\x05\x00\x00\x00\x06\x00\x00\x00\x07\x00\x00\x00\x08\x00\x00\x00\t\x00\x00\x00\n\x00\x00\x00\x0b\x00\x00\x00\x0c\x00\x00\x00\r\x00\x00\x00\x0e\x00\x00\x00\x0f\x00\x00\x00\x10\x00\x00\x00\x11\x00\x00\x00\x12\x00\x00\x00\x13\x00\x00\x00\x14\x00\x00\x00\x15\x00\x00\x00\x16\x00\x00\x00\x17\x00\x00\x00'
tbsg1733
I01
sg1734
I1
sg1735
I-1
sg1736
(lp1815
g1
(g1738
g1697
(dp1816
g469
g470
sg472
g473
sg486
g487
sg488
g489
sg476
g477
sg483
g484
sg490
g491
sg478
g479
sg492
g493
sg494
g495
sg496
g497
stRp1817
ag1
(g1738
g1697
(dp1818
g469
g499
sg472
g501
sg486
g510
sg488
g511
sg476
g477
sg483
g508
sg490
g491
sg478
g504
sg492
g512
sg494
g513
sg496
g514
stRp1819
ag1
(g1738
g1697
(dp1820
g469
g516
sg472
g518
sg486
g527
sg488
g528
sg476
g477
sg483
g525
sg490
g491
sg478
g521
sg492
g529
sg494
g530
sg496
g531
stRp1821
ag1
(g1738
g1697
(dp1822
g469
g533
sg472
g535
sg486
g544
sg488
g545
sg476
g477
sg483
g542
sg490
g546
sg478
g538
sg492
g547
sg494
g548
sg496
g549
stRp1823
ag1
(g1738
g1697
(dp1824
g469
g551
sg472
g553
sg486
g562
sg488
g563
sg476
g477
sg483
g560
sg490
g491
sg478
g556
sg492
g564
sg494
g565
sg496
g566
stRp1825
ag1
(g1738
g1697
(dp1826
g469
g568
sg472
g570
sg486
g579
sg488
g580
sg476
g477
sg483
g577
sg490
g546
sg478
g573
sg492
g581
sg494
g582
sg496
g583
stRp1827
ag1
(g1738
g1697
(dp1828
g469
g585
sg472
g587
sg486
g596
sg488
g597
sg476
g477
sg483
g594
sg490
g546
sg478
g590
sg492
g598
sg494
g599
sg496
g600
stRp1829
ag1
(g1738
g1697
(dp1830
g469
g602
sg472
g604
sg486
g613
sg488
g614
sg476
g477
sg483
g611
sg490
g546
sg478
g607
sg492
g615
sg494
g616
sg496
g617
stRp1831
ag1
(g1738
g1697
(dp1832
g469
g619
sg472
g621
sg486
g630
sg488
g631
sg476
g477
sg483
g628
sg490
g491
sg478
g624
sg492
g632
sg494
g633
sg496
g634
stRp1833
ag1
(g1738
g1697
(dp1834
g469
g636
sg472
g638
sg486
g647
sg488
g648
sg476
g477
sg483
g645
sg490
g491
sg478
g641
sg492
g649
sg494
g650
sg496
g651
stRp1835
ag1
(g1738
g1697
(dp1836
g469
g653
sg472
g655
sg486
g664
sg488
g665
sg476
g477
sg483
g662
sg490
g491
sg478
g658
sg492
g666
sg494
g667
sg496
g668
stRp1837
ag1
(g1738
g1697
(dp1838
g469
g670
sg472
g672
sg486
g681
sg488
g682
sg476
g477
sg483
g679
sg490
g546
sg478
g675
sg492
g683
sg494
g684
sg496
g685
stRp1839
ag1
(g1738
g1697
(dp1840
g469
g687
sg472
g689
sg486
g698
sg488
g699
sg476
g477
sg483
g696
sg490
g546
sg478
g692
sg492
g700
sg494
g701
sg496
g702
stRp1841
ag1
(g1738
g1697
(dp1842
g469
g704
sg472
g706
sg486
g715
sg488
g716
sg476
g477
sg483
g713
sg490
g491
sg478
g709
sg492
g717
sg494
g718
sg496
g719
stRp1843
ag1
(g1738
g1697
(dp1844
g469
g721
sg472
g723
sg486
g731
sg488
g716
sg476
g477
sg483
g645
sg490
g546
sg478
g726
sg492
g732
sg494
g733
sg496
g734
stRp1845
ag1
(g1738
g1697
(dp1846
g469
g736
sg472
g738
sg486
g746
sg488
g747
sg476
g477
sg483
g679
sg490
g546
sg478
g741
sg492
g748
sg494
g749
sg496
g750
stRp1847
ag1
(g1738
g1697
(dp1848
g469
g752
sg472
g754
sg486
g763
sg488
g511
sg476
g477
sg483
g761
sg490
g546
sg478
g757
sg492
g764
sg494
g765
sg496
g766
stRp1849
ag1
(g1738
g1697
(dp1850
g469
g768
sg472
g604
sg486
g778
sg488
g779
sg476
g477
sg483
g776
sg490
g491
sg478
g772
sg492
g780
sg494
g495
sg496
g781
stRp1851
ag1
(g1738
g1697
(dp1852
g469
g783
sg472
g553
sg486
g793
sg488
g563
sg476
g477
sg483
g791
sg490
g491
sg478
g787
sg492
g794
sg494
g795
sg496
g796
stRp1853
ag1
(g1738
g1697
(dp1854
g469
g798
sg472
g800
sg486
g809
sg488
g810
sg476
g477
sg483
g807
sg490
g546
sg478
g803
sg492
g811
sg494
g812
sg496
g813
stRp1855
ag1
(g1738
g1697
(dp1856
g469
g815
sg472
g587
sg486
g825
sg488
g597
sg476
g477
sg483
g823
sg490
g546
sg478
g819
sg492
g826
sg494
g827
sg496
g828
stRp1857
ag1
(g1738
g1697
(dp1858
g469
g830
sg472
g689
sg486
g840
sg488
g841
sg476
g477
sg483
g838
sg490
g546
sg478
g834
sg492
g842
sg494
g843
sg496
g844
stRp1859
ag1
(g1738
g1697
(dp1860
g469
g846
sg472
g621
sg486
g855
sg488
g580
sg476
g477
sg483
g696
sg490
g546
sg478
g850
sg492
g856
sg494
g857
sg496
g858
stRp1861
ag1
(g1738
g1697
(dp1862
g469
g860
sg472
g535
sg486
g870
sg488
g871
sg476
g477
sg483
g868
sg490
g491
sg478
g864
sg492
g872
sg494
g701
sg496
g873
stRp1863
asg1787
Nsg1788
g867
sg1789
I24
sg1790
I0
sg1791
I24
sg1792
I01
sbag1
(g1685
g3
NtRp1864
(dp1865
g1688
Nsg1689
(lp1866
sg1691
L2890398636L
sg10
g1692
sg6
g1693
sg1694
I1
sg21
I01
sg22
g23
sg1695
g1
(g1696
g1697
(dp1867
g15
g1699
(g1700
g1701
g1702
S'b'
tRp1868
(I1
(I24
I1
tg1704
I00
S'\x01\x88\x00A\x91r~A;\\\xe6A\xbc\x9d\x08B\xc7\x1e\x1eB\x17\xafGB\x8a!]B\x80\x99|B\xd0\x16\x9dBN\xe3\xb6B\xa2\xa3\xc1B\xc9k\xd6B\x07$\xe1B\x16\xe5\xf0B\x0b\x9d\xfbB\xeb6\rC\xfb\x99\x17C?\x7f$C\xb8_,Cz>4C\xbc\xa4CCq\x00IC\xcbZNC\xc8\xb8SC'
S'\x00\x00\x00\x00\x00\x00\x00\x00\x00\x00\x00\x00\x00\x00\x00\x00\x00\x00\x00\x00\x00\x00\x00\x00'
Ntbsg1705
g1699
(g1700
g1701
g1702
S'b'
tRp1869
(I1
(I24
I1
tg1704
I00
S'\x00\x00\x80?\x00\x00\x80?\x00\x00\x80?\x00\x00\x80?\x00\x00\x80?\x00\x00\x80?\x00\x00\x80?\x00\x00\x80?\x00\x00\x80?\x00\x00\x80?\x00\x00\x80?\x00\x00\x80?\x00\x00\x80?\x00\x00\x80?\x00\x00\x80?\x00\x00\x80?\x00\x00\x80?\x00\x00\x80?\x00\x00\x80?\x00\x00\x80?\x00\x00\x80?\x00\x00\x80?\x00\x00\x80?\x00\x00\x80?'
S'\x00\x00\x00\x00\x00\x00\x00\x00\x00\x00\x00\x00\x00\x00\x00\x00\x00\x00\x00\x00\x00\x00\x00\x00'
Ntbsg18
g1699
(g1700
g1701
g1702
S'b'
tRp1870
(I1
(I24
I1
tg1704
I00
S'\xc2-\x9f?\x00\x00\x00\x00L\x8a\xef?\xc0\x7f\xc7?\x82\xc6\xc8?\xc0;\x9b?\x14C\xb0?\x12\x84\x93?H\xb8\xb6?\xd0\xd3\n@t\xe8\xaa?4\xf1\xb6?\x1aq\xa9?\x88-\xaf?\xe2\xb4\xa2?\x04s\xc6?\x9ad\xf8?\x00\x00\x00\x00\xd4\x0c\xd9?\x02d\xca?\xe8\xe0\xef?\x0eL\xde?\xdc\xa0\xc6?xt\xef?'
S'\x00\x01\x00\x00\x00\x00\x00\x00\x00\x00\x00\x00\x00\x00\x00\x00\x00\x01\x00\x00\x00\x00\x00\x00'
Ntbsg14
g1699
(g1700
g1701
g1702
S'b'
tRp1871
(I1
(I24
I1
tg1704
I00
S't)\xa0@t)\xa0@t)\xa0@t)\xa0@t)\xa0@t)\xa0@t)\xa0@t)\xa0@t)\xa0@t)\xa0@t)\xa0@t)\xa0@t)\xa0@t)\xa0@t)\xa0@t)\xa0@t)\xa0@t)\xa0@t)\xa0@t)\xa0@t)\xa0@t)\xa0@t)\xa0@t)\xa0@'
S'\x00\x00\x00\x00\x00\x00\x00\x00\x00\x00\x00\x00\x00\x00\x00\x00\x00\x00\x00\x00\x00\x00\x00\x00'
Ntbsg20
g1709
(g1701
(I0
tS'b'
tRp1872
(I1
(I24
I1
tg1711
I00
(lp1873
g880
ag908
ag926
ag943
ag960
ag977
ag993
ag1010
ag1026
ag1043
ag1059
ag1076
ag1093
ag1110
ag1127
ag1144
ag1159
ag1174
ag1187
ag1203
ag1219
ag1234
ag1247
ag1263
atbsg17
g1709
(g1701
(I0
tS'b'
tRp1874
(I1
(I24
I1
tg1711
I00
(lp1875
S'2'
aNaS'2'
aS'2'
aS'1'
aS'1'
aS'2'
aS'1'
aS'1'
aS'2'
aS'2'
aS'2'
aS'1'
aS'1'
aS'1'
aS'2'
aS'2'
aNaS'2'
aS'2'
aS'2'
aS'2'
aS'1'
aS'2'
atbsg16
g1699
(g1700
g1701
g1702
S'b'
tRp1876
(I1
(I24
I1
tg1704
I00
S'\x1f\x82\x10A\xe3?\x87A\x87k\xeeA\x9e\xa1\x0cB\xce\x1f"B;\xb6KB\x1d!aB\xf1N\x80Bp\x1a\x9fBP\xe5\xb8B\xc1\xa3\xc3B\xfdo\xd8B\xcf#\xe3B\x00\xe4\xf2BY\xa1\xfdB\xf26\x0eCx\x9b\x18C$\x82%C<b-CrB5C\xa8\xa6DC\xa1\x01JC\xff]OC\xad\xb8TC'
S'\x00\x00\x00\x00\x00\x00\x00\x00\x00\x00\x00\x00\x00\x00\x00\x00\x00\x00\x00\x00\x00\x00\x00\x00'
Ntbsg19
g1709
(g1701
(I0
tS'b'
tRp1877
(I1
(I24
I1
tg1711
I00
(lp1878
g891
ag915
ag933
ag950
ag967
ag984
ag1000
ag1017
ag1033
ag1049
ag1066
ag1083
ag1100
ag1117
ag1134
ag1150
ag1165
ag1180
ag1194
ag1209
ag1225
ag1240
ag1254
ag1270
atbsg1718
g1699
(g1700
g1701
g1702
S'b'
tRp1879
(I1
(I24
I1
tg1704
I00
S'\x00\x00\x00\x00\x00\x00\x80?\x00\x00\x00@\x00\x00@@\x00\x00\x80@\x00\x00\xa0@\x00\x00\xc0@\x00\x00\xe0@\x00\x00\x00A\x00\x00\x10A\x00\x00 A\x00\x000A\x00\x00@A\x00\x00PA\x00\x00`A\x00\x00pA\x00\x00\x80A\x00\x00\x88A\x00\x00\x90A\x00\x00\x98A\x00\x00\xa0A\x00\x00\xa8A\x00\x00\xb0A\x00\x00\xb8A'
S'\x00\x00\x00\x00\x00\x00\x00\x00\x00\x00\x00\x00\x00\x00\x00\x00\x00\x00\x00\x00\x00\x00\x00\x00'
NtbstRp1880
(dp1881
g1722
(dp1882
g15
I01
sg1705
I01
sg18
I01
sg14
I01
sg20
I00
sg17
I00
sg16
I01
sg19
I00
sg1718
I01
ssg1724
g1864
sg1725
(lp1883
g1705
ag1718
ag14
ag15
ag16
ag17
ag18
ag19
ag20
asg1727
(lp1884
I24
aI1
asbsg1729
g1730
sg1731
g1709
(g1701
(I0
tS'b'
tRp1885
(I1
(I24
I1
tg79
I00
S'\x00\x00\x00\x00\x01\x00\x00\x00\x02\x00\x00\x00\x03\x00\x00\x00\x04\x00\x00\x00\x05\x00\x00\x00\x06\x00\x00\x00\x07\x00\x00\x00\x08\x00\x00\x00\t\x00\x00\x00\n\x00\x00\x00\x0b\x00\x00\x00\x0c\x00\x00\x00\r\x00\x00\x00\x0e\x00\x00\x00\x0f\x00\x00\x00\x10\x00\x00\x00\x11\x00\x00\x00\x12\x00\x00\x00\x13\x00\x00\x00\x14\x00\x00\x00\x15\x00\x00\x00\x16\x00\x00\x00\x17\x00\x00\x00'
tbsg1733
I01
sg1734
I1
sg1735
I-1
sg1736
(lp1886
g1
(g1738
g1697
(dp1887
g875
g876
sg878
g879
sg892
g893
sg894
g895
sg882
g883
sg889
g890
sg896
g897
sg884
g885
sg898
g899
sg900
g901
sg902
g903
stRp1888
ag1
(g1738
g1697
(dp1889
g875
g905
sg878
g907
sg892
g916
sg894
g917
sg882
g883
sg889
g914
sg896
g918
sg884
g910
sg898
g919
sg900
g920
sg902
g921
stRp1890
ag1
(g1738
g1697
(dp1891
g875
g923
sg878
g925
sg892
g934
sg894
g935
sg882
g883
sg889
g932
sg896
g918
sg884
g928
sg898
g936
sg900
g937
sg902
g938
stRp1892
ag1
(g1738
g1697
(dp1893
g875
g940
sg878
g942
sg892
g951
sg894
g952
sg882
g883
sg889
g949
sg896
g918
sg884
g945
sg898
g953
sg900
g954
sg902
g955
stRp1894
ag1
(g1738
g1697
(dp1895
g875
g957
sg878
g959
sg892
g968
sg894
g969
sg882
g883
sg889
g966
sg896
g897
sg884
g962
sg898
g970
sg900
g971
sg902
g972
stRp1896
ag1
(g1738
g1697
(dp1897
g875
g974
sg878
g976
sg892
g985
sg894
g895
sg882
g883
sg889
g983
sg896
g897
sg884
g979
sg898
g986
sg900
g987
sg902
g988
stRp1898
ag1
(g1738
g1697
(dp1899
g875
g990
sg878
g992
sg892
g1001
sg894
g1002
sg882
g883
sg889
g999
sg896
g918
sg884
g995
sg898
g1003
sg900
g1004
sg902
g1005
stRp1900
ag1
(g1738
g1697
(dp1901
g875
g1007
sg878
g1009
sg892
g1018
sg894
g1019
sg882
g883
sg889
g1016
sg896
g897
sg884
g1012
sg898
g1020
sg900
g1021
sg902
g1022
stRp1902
ag1
(g1738
g1697
(dp1903
g875
g1024
sg878
g942
sg892
g1034
sg894
g1035
sg882
g883
sg889
g1032
sg896
g897
sg884
g1028
sg898
g1036
sg900
g1037
sg902
g1038
stRp1904
ag1
(g1738
g1697
(dp1905
g875
g1040
sg878
g1042
sg892
g1050
sg894
g1051
sg882
g883
sg889
g914
sg896
g918
sg884
g1045
sg898
g1052
sg900
g1053
sg902
g1054
stRp1906
ag1
(g1738
g1697
(dp1907
g875
g1056
sg878
g1058
sg892
g1067
sg894
g1068
sg882
g883
sg889
g1065
sg896
g918
sg884
g1061
sg898
g1069
sg900
g1070
sg902
g1071
stRp1908
ag1
(g1738
g1697
(dp1909
g875
g1073
sg878
g1075
sg892
g1084
sg894
g1085
sg882
g883
sg889
g1082
sg896
g918
sg884
g1078
sg898
g1086
sg900
g1087
sg902
g1088
stRp1910
ag1
(g1738
g1697
(dp1911
g875
g1090
sg878
g1092
sg892
g1101
sg894
g1102
sg882
g883
sg889
g1099
sg896
g897
sg884
g1095
sg898
g1103
sg900
g1104
sg902
g1105
stRp1912
ag1
(g1738
g1697
(dp1913
g875
g1107
sg878
g1109
sg892
g1118
sg894
g1119
sg882
g883
sg889
g1116
sg896
g897
sg884
g1112
sg898
g1120
sg900
g1121
sg902
g1122
stRp1914
ag1
(g1738
g1697
(dp1915
g875
g1124
sg878
g1126
sg892
g1135
sg894
g1136
sg882
g883
sg889
g1133
sg896
g897
sg884
g1129
sg898
g1137
sg900
g1138
sg902
g1139
stRp1916
ag1
(g1738
g1697
(dp1917
g875
g1141
sg878
g1143
sg892
g1151
sg894
g952
sg882
g883
sg889
g932
sg896
g918
sg884
g1146
sg898
g1152
sg900
g1153
sg902
g1154
stRp1918
ag1
(g1738
g1697
(dp1919
g875
g1156
sg878
g1158
sg892
g1166
sg894
g1167
sg882
g883
sg889
g999
sg896
g897
sg884
g1161
sg898
g1168
sg900
g1169
sg902
g1170
stRp1920
ag1
(g1738
g1697
(dp1921
g875
g1172
sg878
g879
sg892
g1181
sg894
g1167
sg882
g883
sg889
g983
sg896
g897
sg884
g1176
sg898
g1182
sg900
g987
sg902
g1183
stRp1922
ag1
(g1738
g1697
(dp1923
g875
g1185
sg878
g879
sg892
g1195
sg894
g1085
sg882
g883
sg889
g1193
sg896
g918
sg884
g1189
sg898
g1196
sg900
g1197
sg902
g1198
stRp1924
ag1
(g1738
g1697
(dp1925
g875
g1200
sg878
g1202
sg892
g1210
sg894
g1211
sg882
g883
sg889
g1133
sg896
g918
sg884
g1205
sg898
g1212
sg900
g1213
sg902
g1214
stRp1926
ag1
(g1738
g1697
(dp1927
g875
g1216
sg878
g1218
sg892
g1226
sg894
g1035
sg882
g883
sg889
g949
sg896
g897
sg884
g1221
sg898
g1227
sg900
g1228
sg902
g1229
stRp1928
ag1
(g1738
g1697
(dp1929
g875
g1231
sg878
g1233
sg892
g1241
sg894
g1119
sg882
g883
sg889
g966
sg896
g918
sg884
g1236
sg898
g1242
sg900
g1021
sg902
g1243
stRp1930
ag1
(g1738
g1697
(dp1931
g875
g1245
sg878
g1042
sg892
g1255
sg894
g1256
sg882
g883
sg889
g1253
sg896
g897
sg884
g1249
sg898
g1257
sg900
g1258
sg902
g1259
stRp1932
ag1
(g1738
g1697
(dp1933
g875
g1261
sg878
g1009
sg892
g1271
sg894
g1272
sg882
g883
sg889
g1269
sg896
g918
sg884
g1265
sg898
g1273
sg900
g1274
sg902
g1275
stRp1934
asg1787
Nsg1788
g1268
sg1789
I24
sg1790
I0
sg1791
I24
sg1792
I01
sbag1
(g1685
g3
NtRp1935
(dp1936
g1688
Nsg1689
(lp1937
sg1691
L2890398636L
sg10
g1692
sg6
g1693
sg1694
I1
sg21
I01
sg22
g23
sg1695
g1
(g1696
g1697
(dp1938
g15
g1699
(g1700
g1701
g1702
S'b'
tRp1939
(I1
(I24
I1
tg1704
I00
S"#{\x00A\x14P\x93AmS\xbeA2L\xe9AT+\nB\x13\xa5)B\xe89]B\x19f\x8dB\xab&\x9dB\x96\xe5\xa7B\x92\xb0\xc6B\xdfp\xd6B\xde<\xf0B\xe3\xf4\xfaB\x0e\xdd\x07C>9\rC\xc2\x93\x12C\x1dy\x1fC6V'C\xb5\xb81C\xa6\x989CL\xf4>C\x02YNC\xa6\xb5SC"
S'\x00\x00\x00\x00\x00\x00\x00\x00\x00\x00\x00\x00\x00\x00\x00\x00\x00\x00\x00\x00\x00\x00\x00\x00'
Ntbsg1705
g1699
(g1700
g1701
g1702
S'b'
tRp1940
(I1
(I24
I1
tg1704
I00
S'\x00\x00\x80?\x00\x00\x80?\x00\x00\x80?\x00\x00\x80?\x00\x00\x80?\x00\x00\x80?\x00\x00\x80?\x00\x00\x80?\x00\x00\x80?\x00\x00\x80?\x00\x00\x80?\x00\x00\x80?\x00\x00\x80?\x00\x00\x80?\x00\x00\x80?\x00\x00\x80?\x00\x00\x80?\x00\x00\x80?\x00\x00\x80?\x00\x00\x80?\x00\x00\x80?\x00\x00\x80?\x00\x00\x80?\x00\x00\x80?'
S'\x00\x00\x00\x00\x00\x00\x00\x00\x00\x00\x00\x00\x00\x00\x00\x00\x00\x00\x00\x00\x00\x00\x00\x00'
Ntbsg18
g1699
(g1700
g1701
g1702
S'b'
tRp1941
(I1
(I24
I1
tg1704
I00
S'n\x16\xdd?\xdc\xf1\xea?^\xbe\xa9?\xbc\xe5N?\x88\x05~?tu\x95?<\x86\x95?\x9c\x02u?\x00\x00\x00\x00TNo?\x00\x00\x00\x00\xba\x83\xe8?\x00\x00\x00\x00\x8c\xd8\xb3?\xc2I\xa2?\x00\x00\x00\x00\x00\x00\x00\x00\x00\x00\x00\x00$\n\x93?\x82\xf9\xad?L<\xae?\x00\x00\x00\x00\xdc\xd2^?\xdc\xa6l?'
S'\x00\x00\x00\x00\x00\x00\x00\x00\x01\x00\x01\x00\x01\x00\x00\x01\x01\x01\x00\x00\x00\x01\x00\x00'
Ntbsg14
g1699
(g1700
g1701
g1702
S'b'
tRp1942
(I1
(I24
I1
tg1704
I00
S'\xe9)\xa0@\xe9)\xa0@\xe9)\xa0@\xe9)\xa0@\xe9)\xa0@\xe9)\xa0@\xe9)\xa0@\xe9)\xa0@\xe9)\xa0@\xe9)\xa0@\xe9)\xa0@\xe9)\xa0@\xe9)\xa0@\xe9)\xa0@\xe9)\xa0@\xe9)\xa0@\xe9)\xa0@\xe9)\xa0@\xe9)\xa0@\xe9)\xa0@\xe9)\xa0@\xe9)\xa0@\xe9)\xa0@\xe9)\xa0@'
S'\x00\x00\x00\x00\x00\x00\x00\x00\x00\x00\x00\x00\x00\x00\x00\x00\x00\x00\x00\x00\x00\x00\x00\x00'
Ntbsg20
g1709
(g1701
(I0
tS'b'
tRp1943
(I1
(I24
I1
tg1711
I00
(lp1944
g1282
ag1310
ag1327
ag1345
ag1362
ag1379
ag1396
ag1413
ag1430
ag1447
ag1464
ag1481
ag1497
ag1514
ag1531
ag1546
ag1561
ag1577
ag1593
ag1610
ag1626
ag1641
ag1656
ag1672
atbsg17
g1709
(g1701
(I0
tS'b'
tRp1945
(I1
(I24
I1
tg1711
I00
(lp1946
S'1'
aS'1'
aS'2'
aS'2'
aS'2'
aS'1'
aS'1'
aS'1'
aNaS'1'
aNaS'1'
aNaS'2'
aS'2'
aNaNaNaS'2'
aS'2'
aS'2'
aNaS'2'
aS'2'
atbsg16
g1699
(g1700
g1701
g1702
S'b'
tRp1947
(I1
(I24
I1
tg1704
I00
S'\xddz\x10AE\\\x9bA8V\xc6A\xd4O\xf1Ag&\x0eB\xbd\xa6-B\x01:aB\x82k\x8fB\xd6(\x9fBH\xe7\xa9B\xc9\xb5\xc8B\x8aw\xd8B\xd1>\xf2B1\xf4\xfcBC\xe0\x08C\xe39\x0eC\x93\x94\x13C\xfdy CbV(CT\xba2C.\x9a:C\x84\xf6?C2[OC$\xb6TC'
S'\x00\x00\x00\x00\x00\x00\x00\x00\x00\x00\x00\x00\x00\x00\x00\x00\x00\x00\x00\x00\x00\x00\x00\x00'
Ntbsg19
g1709
(g1701
(I0
tS'b'
tRp1948
(I1
(I24
I1
tg1711
I00
(lp1949
g1293
ag1317
ag1334
ag1352
ag1369
ag1386
ag1403
ag1420
ag1437
ag1454
ag1471
ag1488
ag1504
ag1521
ag1538
ag1552
ag1568
ag1584
ag1600
ag1617
ag1633
ag1647
ag1662
ag1678
atbsg1718
g1699
(g1700
g1701
g1702
S'b'
tRp1950
(I1
(I24
I1
tg1704
I00
S'\x00\x00\x00\x00\x00\x00\x80?\x00\x00\x00@\x00\x00@@\x00\x00\x80@\x00\x00\xa0@\x00\x00\xc0@\x00\x00\xe0@\x00\x00\x00A\x00\x00\x10A\x00\x00 A\x00\x000A\x00\x00@A\x00\x00PA\x00\x00`A\x00\x00pA\x00\x00\x80A\x00\x00\x88A\x00\x00\x90A\x00\x00\x98A\x00\x00\xa0A\x00\x00\xa8A\x00\x00\xb0A\x00\x00\xb8A'
S'\x00\x00\x00\x00\x00\x00\x00\x00\x00\x00\x00\x00\x00\x00\x00\x00\x00\x00\x00\x00\x00\x00\x00\x00'
NtbstRp1951
(dp1952
g1722
(dp1953
g15
I01
sg1705
I01
sg18
I01
sg14
I01
sg20
I00
sg17
I00
sg16
I01
sg19
I00
sg1718
I01
ssg1724
g1935
sg1725
(lp1954
g1705
ag1718
ag14
ag15
ag16
ag17
ag18
ag19
ag20
asg1727
(lp1955
I24
aI1
asbsg1729
g1730
sg1731
g1709
(g1701
(I0
tS'b'
tRp1956
(I1
(I24
I1
tg79
I00
S'\x00\x00\x00\x00\x01\x00\x00\x00\x02\x00\x00\x00\x03\x00\x00\x00\x04\x00\x00\x00\x05\x00\x00\x00\x06\x00\x00\x00\x07\x00\x00\x00\x08\x00\x00\x00\t\x00\x00\x00\n\x00\x00\x00\x0b\x00\x00\x00\x0c\x00\x00\x00\r\x00\x00\x00\x0e\x00\x00\x00\x0f\x00\x00\x00\x10\x00\x00\x00\x11\x00\x00\x00\x12\x00\x00\x00\x13\x00\x00\x00\x14\x00\x00\x00\x15\x00\x00\x00\x16\x00\x00\x00\x17\x00\x00\x00'
tbsg1733
I01
sg1734
I1
sg1735
I-1
sg1736
(lp1957
g1
(g1738
g1697
(dp1958
g1277
g1278
sg1280
g1281
sg1294
g1295
sg1296
g1297
sg1284
g1285
sg1291
g1292
sg1298
g1299
sg1286
g1287
sg1300
g1301
sg1302
g1303
sg1304
g1305
stRp1959
ag1
(g1738
g1697
(dp1960
g1277
g1307
sg1280
g1309
sg1294
g1318
sg1296
g1319
sg1284
g1285
sg1291
g1316
sg1298
g1299
sg1286
g1312
sg1300
g1320
sg1302
g1321
sg1304
g1322
stRp1961
ag1
(g1738
g1697
(dp1962
g1277
g1324
sg1280
g1326
sg1294
g1335
sg1296
g1336
sg1284
g1285
sg1291
g1333
sg1298
g1337
sg1286
g1329
sg1300
g1338
sg1302
g1339
sg1304
g1340
stRp1963
ag1
(g1738
g1697
(dp1964
g1277
g1342
sg1280
g1344
sg1294
g1353
sg1296
g1354
sg1284
g1285
sg1291
g1351
sg1298
g1337
sg1286
g1347
sg1300
g1355
sg1302
g1356
sg1304
g1357
stRp1965
ag1
(g1738
g1697
(dp1966
g1277
g1359
sg1280
g1361
sg1294
g1370
sg1296
g1371
sg1284
g1285
sg1291
g1368
sg1298
g1337
sg1286
g1364
sg1300
g1372
sg1302
g1373
sg1304
g1374
stRp1967
ag1
(g1738
g1697
(dp1968
g1277
g1376
sg1280
g1378
sg1294
g1387
sg1296
g1388
sg1284
g1285
sg1291
g1385
sg1298
g1299
sg1286
g1381
sg1300
g1389
sg1302
g1390
sg1304
g1391
stRp1969
ag1
(g1738
g1697
(dp1970
g1277
g1393
sg1280
g1395
sg1294
g1404
sg1296
g1405
sg1284
g1285
sg1291
g1402
sg1298
g1299
sg1286
g1398
sg1300
g1406
sg1302
g1407
sg1304
g1408
stRp1971
ag1
(g1738
g1697
(dp1972
g1277
g1410
sg1280
g1412
sg1294
g1421
sg1296
g1422
sg1284
g1285
sg1291
g1419
sg1298
g1299
sg1286
g1415
sg1300
g1423
sg1302
g1424
sg1304
g1425
stRp1973
ag1
(g1738
g1697
(dp1974
g1277
g1427
sg1280
g1429
sg1294
g1438
sg1296
g1439
sg1284
g1285
sg1291
g1436
sg1298
g1337
sg1286
g1432
sg1300
g1440
sg1302
g1441
sg1304
g1442
stRp1975
ag1
(g1738
g1697
(dp1976
g1277
g1444
sg1280
g1446
sg1294
g1455
sg1296
g1456
sg1284
g1285
sg1291
g1453
sg1298
g1299
sg1286
g1449
sg1300
g1457
sg1302
g1458
sg1304
g1459
stRp1977
ag1
(g1738
g1697
(dp1978
g1277
g1461
sg1280
g1463
sg1294
g1472
sg1296
g1473
sg1284
g1285
sg1291
g1470
sg1298
g1299
sg1286
g1466
sg1300
g1474
sg1302
g1475
sg1304
g1476
stRp1979
ag1
(g1738
g1697
(dp1980
g1277
g1478
sg1280
g1480
sg1294
g1489
sg1296
g1490
sg1284
g1285
sg1291
g1487
sg1298
g1299
sg1286
g1483
sg1300
g1491
sg1302
g1492
sg1304
g1493
stRp1981
ag1
(g1738
g1697
(dp1982
g1277
g1495
sg1280
g1344
sg1294
g1505
sg1296
g1506
sg1284
g1285
sg1291
g1503
sg1298
g1337
sg1286
g1499
sg1300
g1507
sg1302
g1508
sg1304
g1509
stRp1983
ag1
(g1738
g1697
(dp1984
g1277
g1511
sg1280
g1513
sg1294
g1522
sg1296
g1523
sg1284
g1285
sg1291
g1520
sg1298
g1337
sg1286
g1516
sg1300
g1524
sg1302
g1525
sg1304
g1526
stRp1985
ag1
(g1738
g1697
(dp1986
g1277
g1528
sg1280
g1530
sg1294
g1539
sg1296
g1540
sg1284
g1285
sg1291
g1537
sg1298
g1337
sg1286
g1533
sg1300
g1541
sg1302
g1339
sg1304
g1542
stRp1987
ag1
(g1738
g1697
(dp1988
g1277
g1544
sg1280
g1412
sg1294
g1553
sg1296
g1422
sg1284
g1285
sg1291
g1292
sg1298
g1299
sg1286
g1548
sg1300
g1554
sg1302
g1555
sg1304
g1556
stRp1989
ag1
(g1738
g1697
(dp1990
g1277
g1558
sg1280
g1560
sg1294
g1569
sg1296
g1570
sg1284
g1285
sg1291
g1567
sg1298
g1299
sg1286
g1563
sg1300
g1571
sg1302
g1572
sg1304
g1573
stRp1991
ag1
(g1738
g1697
(dp1992
g1277
g1575
sg1280
g1309
sg1294
g1585
sg1296
g1586
sg1284
g1285
sg1291
g1583
sg1298
g1337
sg1286
g1579
sg1300
g1587
sg1302
g1321
sg1304
g1588
stRp1993
ag1
(g1738
g1697
(dp1994
g1277
g1590
sg1280
g1592
sg1294
g1601
sg1296
g1602
sg1284
g1285
sg1291
g1599
sg1298
g1337
sg1286
g1595
sg1300
g1603
sg1302
g1604
sg1304
g1605
stRp1995
ag1
(g1738
g1697
(dp1996
g1277
g1607
sg1280
g1609
sg1294
g1618
sg1296
g1619
sg1284
g1285
sg1291
g1616
sg1298
g1299
sg1286
g1612
sg1300
g1620
sg1302
g1621
sg1304
g1622
stRp1997
ag1
(g1738
g1697
(dp1998
g1277
g1624
sg1280
g1560
sg1294
g1634
sg1296
g1570
sg1284
g1285
sg1291
g1632
sg1298
g1299
sg1286
g1628
sg1300
g1635
sg1302
g1636
sg1304
g1637
stRp1999
ag1
(g1738
g1697
(dp2000
g1277
g1639
sg1280
g1513
sg1294
g1648
sg1296
g1649
sg1284
g1285
sg1291
g1436
sg1298
g1299
sg1286
g1643
sg1300
g1650
sg1302
g1441
sg1304
g1651
stRp2001
ag1
(g1738
g1697
(dp2002
g1277
g1653
sg1280
g1655
sg1294
g1663
sg1296
g1664
sg1284
g1285
sg1291
g1419
sg1298
g1337
sg1286
g1658
sg1300
g1665
sg1302
g1666
sg1304
g1667
stRp2003
ag1
(g1738
g1697
(dp2004
g1277
g1669
sg1280
g1671
sg1294
g1679
sg1296
g1680
sg1284
g1285
sg1291
g1453
sg1298
g1337
sg1286
g1674
sg1300
g1681
sg1302
g1458
sg1304
g1682
stRp2005
asg1787
Nsg1788
g1677
sg1789
I24
sg1790
I0
sg1791
I24
sg1792
I01
sbasS'savePickle'
p2006
I00
sb.